ccopy_reg
_reconstructor
p1
(cmatplotlib.font_manager
FontManager
p2
c__builtin__
object
p3
NtRp4
(dp5
S'ttflist'
p6
(lp7
g1
(cmatplotlib.font_manager
FontEntry
p8
g3
NtRp9
(dp10
S'style'
p11
Vnormal
p12
sS'name'
p13
S'Bitstream Vera Sans Mono'
p14
sS'weight'
p15
I400
sS'stretch'
p16
g12
sS'variant'
p17
g12
sS'fname'
p18
V/usr/local/lib/python2.7/site-packages/matplotlib/mpl-data/fonts/ttf/VeraMono.ttf
p19
sS'size'
p20
Vscalable
p21
sbag1
(g8
g3
NtRp22
(dp23
g11
g12
sg13
S'cmr10'
p24
sg15
I400
sg16
g12
sg17
g12
sg18
V/usr/local/lib/python2.7/site-packages/matplotlib/mpl-data/fonts/ttf/cmr10.ttf
p25
sg20
g21
sbag1
(g8
g3
NtRp26
(dp27
g11
g12
sg13
S'STIXSizeFourSym'
p28
sg15
I400
sg16
g12
sg17
g12
sg18
V/usr/local/lib/python2.7/site-packages/matplotlib/mpl-data/fonts/ttf/STIXSizFourSymReg.ttf
p29
sg20
g21
sbag1
(g8
g3
NtRp30
(dp31
g11
g12
sg13
S'STIXSizeTwoSym'
p32
sg15
I400
sg16
g12
sg17
g12
sg18
V/usr/local/lib/python2.7/site-packages/matplotlib/mpl-data/fonts/ttf/STIXSizTwoSymReg.ttf
p33
sg20
g21
sbag1
(g8
g3
NtRp34
(dp35
g11
g12
sg13
S'STIXSizeThreeSym'
p36
sg15
I700
sg16
g12
sg17
g12
sg18
V/usr/local/lib/python2.7/site-packages/matplotlib/mpl-data/fonts/ttf/STIXSizThreeSymBol.ttf
p37
sg20
g21
sbag1
(g8
g3
NtRp38
(dp39
g11
Vitalic
p40
sg13
S'STIXGeneral'
p41
sg15
I700
sg16
g12
sg17
g12
sg18
V/usr/local/lib/python2.7/site-packages/matplotlib/mpl-data/fonts/ttf/STIXGeneralBolIta.ttf
p42
sg20
g21
sbag1
(g8
g3
NtRp43
(dp44
g11
Voblique
p45
sg13
S'Bitstream Vera Sans'
p46
sg15
I700
sg16
g12
sg17
g12
sg18
V/usr/local/lib/python2.7/site-packages/matplotlib/mpl-data/fonts/ttf/VeraBI.ttf
p47
sg20
g21
sbag1
(g8
g3
NtRp48
(dp49
g11
g12
sg13
S'cmtt10'
p50
sg15
I400
sg16
g12
sg17
g12
sg18
V/usr/local/lib/python2.7/site-packages/matplotlib/mpl-data/fonts/ttf/cmtt10.ttf
p51
sg20
g21
sbag1
(g8
g3
NtRp52
(dp53
g11
g12
sg13
S'STIXSizeTwoSym'
p54
sg15
I700
sg16
g12
sg17
g12
sg18
V/usr/local/lib/python2.7/site-packages/matplotlib/mpl-data/fonts/ttf/STIXSizTwoSymBol.ttf
p55
sg20
g21
sbag1
(g8
g3
NtRp56
(dp57
g11
g12
sg13
S'STIXGeneral'
p58
sg15
I400
sg16
g12
sg17
g12
sg18
V/usr/local/lib/python2.7/site-packages/matplotlib/mpl-data/fonts/ttf/STIXGeneral.ttf
p59
sg20
g21
sbag1
(g8
g3
NtRp60
(dp61
g11
g12
sg13
S'cmmi10'
p62
sg15
I400
sg16
g12
sg17
g12
sg18
V/usr/local/lib/python2.7/site-packages/matplotlib/mpl-data/fonts/ttf/cmmi10.ttf
p63
sg20
g21
sbag1
(g8
g3
NtRp64
(dp65
g11
g12
sg13
S'STIXSizeOneSym'
p66
sg15
I700
sg16
g12
sg17
g12
sg18
V/usr/local/lib/python2.7/site-packages/matplotlib/mpl-data/fonts/ttf/STIXSizOneSymBol.ttf
p67
sg20
g21
sbag1
(g8
g3
NtRp68
(dp69
g11
g12
sg13
S'cmb10'
p70
sg15
I400
sg16
g12
sg17
g12
sg18
V/usr/local/lib/python2.7/site-packages/matplotlib/mpl-data/fonts/ttf/cmb10.ttf
p71
sg20
g21
sbag1
(g8
g3
NtRp72
(dp73
g11
g12
sg13
S'STIXSizeThreeSym'
p74
sg15
I400
sg16
g12
sg17
g12
sg18
V/usr/local/lib/python2.7/site-packages/matplotlib/mpl-data/fonts/ttf/STIXSizThreeSymReg.ttf
p75
sg20
g21
sbag1
(g8
g3
NtRp76
(dp77
g11
g12
sg13
S'STIXSizeFiveSym'
p78
sg15
I400
sg16
g12
sg17
g12
sg18
V/usr/local/lib/python2.7/site-packages/matplotlib/mpl-data/fonts/ttf/STIXSizFiveSymReg.ttf
p79
sg20
g21
sbag1
(g8
g3
NtRp80
(dp81
g11
g40
sg13
S'STIXGeneral'
p82
sg15
I400
sg16
g12
sg17
g12
sg18
V/usr/local/lib/python2.7/site-packages/matplotlib/mpl-data/fonts/ttf/STIXGeneralItalic.ttf
p83
sg20
g21
sbag1
(g8
g3
NtRp84
(dp85
g11
g12
sg13
S'Bitstream Vera Sans'
p86
sg15
I700
sg16
g12
sg17
g12
sg18
V/usr/local/lib/python2.7/site-packages/matplotlib/mpl-data/fonts/ttf/VeraBd.ttf
p87
sg20
g21
sbag1
(g8
g3
NtRp88
(dp89
g11
g12
sg13
S'cmss10'
p90
sg15
I400
sg16
g12
sg17
g12
sg18
V/usr/local/lib/python2.7/site-packages/matplotlib/mpl-data/fonts/ttf/cmss10.ttf
p91
sg20
g21
sbag1
(g8
g3
NtRp92
(dp93
g11
g12
sg13
S'Bitstream Vera Serif'
p94
sg15
I700
sg16
g12
sg17
g12
sg18
V/usr/local/lib/python2.7/site-packages/matplotlib/mpl-data/fonts/ttf/VeraSeBd.ttf
p95
sg20
g21
sbag1
(g8
g3
NtRp96
(dp97
g11
g45
sg13
S'Bitstream Vera Sans Mono'
p98
sg15
I700
sg16
g12
sg17
g12
sg18
V/usr/local/lib/python2.7/site-packages/matplotlib/mpl-data/fonts/ttf/VeraMoBI.ttf
p99
sg20
g21
sbag1
(g8
g3
NtRp100
(dp101
g11
g12
sg13
S'Bitstream Vera Sans Mono'
p102
sg15
I700
sg16
g12
sg17
g12
sg18
V/usr/local/lib/python2.7/site-packages/matplotlib/mpl-data/fonts/ttf/VeraMoBd.ttf
p103
sg20
g21
sbag1
(g8
g3
NtRp104
(dp105
g11
g45
sg13
S'Bitstream Vera Sans Mono'
p106
sg15
I400
sg16
g12
sg17
g12
sg18
V/usr/local/lib/python2.7/site-packages/matplotlib/mpl-data/fonts/ttf/VeraMoIt.ttf
p107
sg20
g21
sbag1
(g8
g3
NtRp108
(dp109
g11
g12
sg13
S'Bitstream Vera Sans'
p110
sg15
I400
sg16
g12
sg17
g12
sg18
V/usr/local/lib/python2.7/site-packages/matplotlib/mpl-data/fonts/ttf/Vera.ttf
p111
sg20
g21
sbag1
(g8
g3
NtRp112
(dp113
g11
g40
sg13
S'STIXNonUnicode'
p114
sg15
I700
sg16
g12
sg17
g12
sg18
V/usr/local/lib/python2.7/site-packages/matplotlib/mpl-data/fonts/ttf/STIXNonUniBolIta.ttf
p115
sg20
g21
sbag1
(g8
g3
NtRp116
(dp117
g11
g12
sg13
S'STIXNonUnicode'
p118
sg15
I700
sg16
g12
sg17
g12
sg18
V/usr/local/lib/python2.7/site-packages/matplotlib/mpl-data/fonts/ttf/STIXNonUniBol.ttf
p119
sg20
g21
sbag1
(g8
g3
NtRp120
(dp121
g11
g12
sg13
S'STIXSizeOneSym'
p122
sg15
I400
sg16
g12
sg17
g12
sg18
V/usr/local/lib/python2.7/site-packages/matplotlib/mpl-data/fonts/ttf/STIXSizOneSymReg.ttf
p123
sg20
g21
sbag1
(g8
g3
NtRp124
(dp125
g11
g12
sg13
S'STIXGeneral'
p126
sg15
I700
sg16
g12
sg17
g12
sg18
V/usr/local/lib/python2.7/site-packages/matplotlib/mpl-data/fonts/ttf/STIXGeneralBol.ttf
p127
sg20
g21
sbag1
(g8
g3
NtRp128
(dp129
g11
g45
sg13
S'Bitstream Vera Sans'
p130
sg15
I400
sg16
g12
sg17
g12
sg18
V/usr/local/lib/python2.7/site-packages/matplotlib/mpl-data/fonts/ttf/VeraIt.ttf
p131
sg20
g21
sbag1
(g8
g3
NtRp132
(dp133
g11
g12
sg13
S'STIXNonUnicode'
p134
sg15
I400
sg16
g12
sg17
g12
sg18
V/usr/local/lib/python2.7/site-packages/matplotlib/mpl-data/fonts/ttf/STIXNonUni.ttf
p135
sg20
g21
sbag1
(g8
g3
NtRp136
(dp137
g11
g12
sg13
S'cmex10'
p138
sg15
I400
sg16
g12
sg17
g12
sg18
V/usr/local/lib/python2.7/site-packages/matplotlib/mpl-data/fonts/ttf/cmex10.ttf
p139
sg20
g21
sbag1
(g8
g3
NtRp140
(dp141
g11
g12
sg13
S'cmsy10'
p142
sg15
I400
sg16
g12
sg17
g12
sg18
V/usr/local/lib/python2.7/site-packages/matplotlib/mpl-data/fonts/ttf/cmsy10.ttf
p143
sg20
g21
sbag1
(g8
g3
NtRp144
(dp145
g11
g40
sg13
S'STIXNonUnicode'
p146
sg15
I400
sg16
g12
sg17
g12
sg18
V/usr/local/lib/python2.7/site-packages/matplotlib/mpl-data/fonts/ttf/STIXNonUniIta.ttf
p147
sg20
g21
sbag1
(g8
g3
NtRp148
(dp149
g11
g12
sg13
S'STIXSizeFourSym'
p150
sg15
I700
sg16
g12
sg17
g12
sg18
V/usr/local/lib/python2.7/site-packages/matplotlib/mpl-data/fonts/ttf/STIXSizFourSymBol.ttf
p151
sg20
g21
sbag1
(g8
g3
NtRp152
(dp153
g11
g12
sg13
S'Bitstream Vera Serif'
p154
sg15
I400
sg16
g12
sg17
g12
sg18
V/usr/local/lib/python2.7/site-packages/matplotlib/mpl-data/fonts/ttf/VeraSe.ttf
p155
sg20
g21
sbag1
(g8
g3
NtRp156
(dp157
g11
g12
sg13
S'Fira Sans'
p158
sg15
I400
sg16
g12
sg17
g12
sg18
V/Users/jjangsangy/Library/Fonts/FiraSans-Four.otf
p159
sg20
g21
sbag1
(g8
g3
NtRp160
(dp161
g11
g40
sg13
S'Trebuchet MS'
p162
sg15
I400
sg16
g12
sg17
g12
sg18
V/Library/Fonts/Trebuchet MS Italic.ttf
p163
sg20
g21
sbag1
(g8
g3
NtRp164
(dp165
g11
g12
sg13
S'Droid Serif'
p166
sg15
I400
sg16
g12
sg17
g12
sg18
V/Users/jjangsangy/Library/Fonts/DroidSerif.ttf
p167
sg20
g21
sbag1
(g8
g3
NtRp168
(dp169
g11
g12
sg13
S'Mshtakan'
p170
sg15
I400
sg16
g12
sg17
g12
sg18
V/Library/Fonts/MshtakanRegular.ttf
p171
sg20
g21
sbag1
(g8
g3
NtRp172
(dp173
g11
g12
sg13
S'Osaka'
p174
sg15
I400
sg16
g12
sg17
g12
sg18
V/Library/Fonts/Osaka.ttf
p175
sg20
g21
sbag1
(g8
g3
NtRp176
(dp177
g11
g12
sg13
S'Source Code Pro for Powerline'
p178
sg15
I200
sg16
g12
sg17
g12
sg18
V/Users/jjangsangy/Library/Fonts/Sauce Code Powerline ExtraLight.otf
p179
sg20
g21
sbag1
(g8
g3
NtRp180
(dp181
g11
g40
sg13
S'Fira Sans'
p182
sg15
I400
sg16
g12
sg17
g12
sg18
V/Users/jjangsangy/Library/Fonts/FiraSans-BookItalic.otf
p183
sg20
g21
sbag1
(g8
g3
NtRp184
(dp185
g11
g12
sg13
S'Times New Roman'
p186
sg15
I500
sg16
g12
sg17
g12
sg18
V/Library/Fonts/Times New Roman.ttf
p187
sg20
g21
sbag1
(g8
g3
NtRp188
(dp189
g11
g12
sg13
S'LiSong Pro'
p190
sg15
I400
sg16
g12
sg17
g12
sg18
V/Library/Fonts/\u5137\u5b8b Pro.ttf
p191
sg20
g21
sbag1
(g8
g3
NtRp192
(dp193
g11
g12
sg13
S'Hiragino Maru Gothic ProN'
p194
sg15
I400
sg16
g12
sg17
g12
sg18
V/Library/Fonts/\u30d2\u30e9\u30ad\u3099\u30ce\u4e38\u30b3\u3099 ProN W4.otf
p195
sg20
g21
sbag1
(g8
g3
NtRp196
(dp197
g11
g12
sg13
S'AppleMyungjo'
p198
sg15
I400
sg16
g12
sg17
g12
sg18
V/Library/Fonts/AppleMyungjo.ttf
p199
sg20
g21
sbag1
(g8
g3
NtRp200
(dp201
g11
g12
sg13
S'Mishafi Gold'
p202
sg15
I400
sg16
g12
sg17
g12
sg18
V/Library/Fonts/Mishafi Gold.ttf
p203
sg20
g21
sbag1
(g8
g3
NtRp204
(dp205
g11
g12
sg13
S'Droid Sans Mono Slashed for Powerline'
p206
sg15
I400
sg16
g12
sg17
g12
sg18
V/Users/jjangsangy/Library/Fonts/Droid Sans Mono Slashed for Powerline.ttf
p207
sg20
g21
sbag1
(g8
g3
NtRp208
(dp209
g11
g40
sg13
S'Fira Sans'
p210
sg15
I800
sg16
g12
sg17
g12
sg18
V/Users/jjangsangy/Library/Fonts/FiraSans-HeavyItalic.otf
p211
sg20
g21
sbag1
(g8
g3
NtRp212
(dp213
g11
g12
sg13
S'Meslo LG L for Powerline'
p214
sg15
I400
sg16
g12
sg17
g12
sg18
V/Users/jjangsangy/Library/Fonts/Meslo LG L Regular for Powerline.otf
p215
sg20
g21
sbag1
(g8
g3
NtRp216
(dp217
g11
g12
sg13
S'Ubuntu Mono'
p218
sg15
I700
sg16
g12
sg17
g12
sg18
V/Users/jjangsangy/Library/Fonts/UbuntuMono-B.ttf
p219
sg20
g21
sbag1
(g8
g3
NtRp220
(dp221
g11
g12
sg13
S'STIXSizeThreeSym'
p222
sg15
I700
sg16
g12
sg17
g12
sg18
V/Library/Fonts/STIXSizThreeSymBol.otf
p223
sg20
g21
sbag1
(g8
g3
NtRp224
(dp225
g11
g12
sg13
S'DejaVu Sans Mono'
p226
sg15
I400
sg16
g12
sg17
g12
sg18
V/Users/jjangsangy/Library/Fonts/DejaVuSansMono.ttf
p227
sg20
g21
sbag1
(g8
g3
NtRp228
(dp229
g11
g40
sg13
S'Anonymous Pro for Powerline'
p230
sg15
I400
sg16
g12
sg17
g12
sg18
V/Users/jjangsangy/Library/Fonts/Anonymice Powerline Italic.ttf
p231
sg20
g21
sbag1
(g8
g3
NtRp232
(dp233
g11
g12
sg13
S'East Syriac Ctesiphon'
p234
sg15
I400
sg16
g12
sg17
g12
sg18
V/usr/X11/lib/X11/fonts/OTF/SyrCOMCtesiphon.otf
p235
sg20
g21
sbag1
(g8
g3
NtRp236
(dp237
g11
g12
sg13
S'Source Code Pro'
p238
sg15
I700
sg16
g12
sg17
g12
sg18
V/Users/jjangsangy/Library/Fonts/SourceCodePro-Semibold.otf
p239
sg20
g21
sbag1
(g8
g3
NtRp240
(dp241
g11
g12
sg13
S'Oxygen'
p242
sg15
I700
sg16
g12
sg17
g12
sg18
V/Users/jjangsangy/Library/Fonts/Oxygen-Bold.ttf
p243
sg20
g21
sbag1
(g8
g3
NtRp244
(dp245
g11
g12
sg13
S'Hiragino Kaku Gothic Pro'
p246
sg15
I700
sg16
g12
sg17
g12
sg18
V/Library/Fonts/\u30d2\u30e9\u30ad\u3099\u30ce\u89d2\u30b3\u3099 Pro W6.otf
p247
sg20
g21
sbag1
(g8
g3
NtRp248
(dp249
g11
g12
sg13
S'Hiragino Maru Gothic Pro'
p250
sg15
I400
sg16
g12
sg17
g12
sg18
V/Library/Fonts/\u30d2\u30e9\u30ad\u3099\u30ce\u4e38\u30b3\u3099 Pro W4.otf
p251
sg20
g21
sbag1
(g8
g3
NtRp252
(dp253
g11
g40
sg13
S'Arial'
p254
sg15
I700
sg16
g12
sg17
g12
sg18
V/Library/Fonts/Arial Bold Italic.ttf
p255
sg20
g21
sbag1
(g8
g3
NtRp256
(dp257
g11
g12
sg13
S'SignPainter'
p258
sg15
I400
sg16
g12
sg17
g12
sg18
V/Library/Fonts/SignPainter.otf
p259
sg20
g21
sbag1
(g8
g3
NtRp260
(dp261
g11
g12
sg13
S'Mshtakan'
p262
sg15
I700
sg16
g12
sg17
g12
sg18
V/Library/Fonts/MshtakanBold.ttf
p263
sg20
g21
sbag1
(g8
g3
NtRp264
(dp265
g11
g40
sg13
S'Ubuntu Mono'
p266
sg15
I700
sg16
g12
sg17
g12
sg18
V/Users/jjangsangy/Library/Fonts/UbuntuMono-BI.ttf
p267
sg20
g21
sbag1
(g8
g3
NtRp268
(dp269
g11
g12
sg13
S'STIXSizeFiveSym'
p270
sg15
I400
sg16
g12
sg17
g12
sg18
V/Library/Fonts/STIXSizFiveSymReg.otf
p271
sg20
g21
sbag1
(g8
g3
NtRp272
(dp273
g11
g12
sg13
S'Inconsolata-dz for Powerline'
p274
sg15
I400
sg16
g12
sg17
g12
sg18
V/Users/jjangsangy/Library/Fonts/Inconsolata-dz for Powerline.otf
p275
sg20
g21
sbag1
(g8
g3
NtRp276
(dp277
g11
g12
sg13
S'Serto Urhoy'
p278
sg15
I700
sg16
g12
sg17
g12
sg18
V/usr/X11/lib/X11/fonts/OTF/SyrCOMUrhoyBold.otf
p279
sg20
g21
sbag1
(g8
g3
NtRp280
(dp281
g11
g12
sg13
S'Gurmukhi MT'
p282
sg15
I400
sg16
g12
sg17
g12
sg18
V/Library/Fonts/Gurmukhi.ttf
p283
sg20
g21
sbag1
(g8
g3
NtRp284
(dp285
g11
g12
sg13
S'YuGothic'
p286
sg15
I700
sg16
g12
sg17
g12
sg18
V/Library/Fonts/Yu Gothic Bold.otf
p287
sg20
g21
sbag1
(g8
g3
NtRp288
(dp289
g11
g12
sg13
S'Estrangelo Talada'
p290
sg15
I400
sg16
g12
sg17
g12
sg18
V/usr/X11/lib/X11/fonts/OTF/SyrCOMTalada.otf
p291
sg20
g21
sbag1
(g8
g3
NtRp292
(dp293
g11
g12
sg13
S'Source Code Pro for Powerline'
p294
sg15
I500
sg16
g12
sg17
g12
sg18
V/Users/jjangsangy/Library/Fonts/Sauce Code Powerline Medium.otf
p295
sg20
g21
sbag1
(g8
g3
NtRp296
(dp297
g11
g12
sg13
S'Source Code Pro'
p298
sg15
I500
sg16
g12
sg17
g12
sg18
V/Users/jjangsangy/Library/Fonts/SourceCodePro-Medium.otf
p299
sg20
g21
sbag1
(g8
g3
NtRp300
(dp301
g11
g12
sg13
S'PCMyungjo'
p302
sg15
I400
sg16
g12
sg17
g12
sg18
V/Library/Fonts/PCmyoungjo.ttf
p303
sg20
g21
sbag1
(g8
g3
NtRp304
(dp305
g11
g40
sg13
S'Verdana'
p306
sg15
I700
sg16
g12
sg17
g12
sg18
V/Library/Fonts/Verdana Bold Italic.ttf
p307
sg20
g21
sbag1
(g8
g3
NtRp308
(dp309
g11
g12
sg13
S'Estrangelo Quenneshrin'
p310
sg15
I400
sg16
g12
sg17
g12
sg18
V/usr/X11/lib/X11/fonts/OTF/SyrCOMQenNeshrin.otf
p311
sg20
g21
sbag1
(g8
g3
NtRp312
(dp313
g11
g40
sg13
S'Fira Sans'
p314
sg15
I700
sg16
g12
sg17
g12
sg18
V/Users/jjangsangy/Library/Fonts/FiraSans-ExtraBoldItalic.otf
p315
sg20
g21
sbag1
(g8
g3
NtRp316
(dp317
g11
g12
sg13
S'Serto Malankara'
p318
sg15
I400
sg16
g12
sg17
g12
sg18
V/usr/X11/lib/X11/fonts/OTF/SyrCOMMalankara.otf
p319
sg20
g21
sbag1
(g8
g3
NtRp320
(dp321
g11
g12
sg13
S'Kokonor'
p322
sg15
I400
sg16
g12
sg17
g12
sg18
V/Library/Fonts/Kokonor.ttf
p323
sg20
g21
sbag1
(g8
g3
NtRp324
(dp325
g11
g40
sg13
S'Droid Serif'
p326
sg15
I400
sg16
g12
sg17
g12
sg18
V/Users/jjangsangy/Library/Fonts/DroidSerif-Italic.ttf
p327
sg20
g21
sbag1
(g8
g3
NtRp328
(dp329
g11
g12
sg13
S'Hiragino Kaku Gothic ProN'
p330
sg15
I700
sg16
g12
sg17
g12
sg18
V/System/Library/Fonts/\u30d2\u30e9\u30ad\u3099\u30ce\u89d2\u30b3\u3099 ProN W6.otf
p331
sg20
g21
sbag1
(g8
g3
NtRp332
(dp333
g11
g12
sg13
S'Kailasa'
p334
sg15
I400
sg16
g12
sg17
g12
sg18
V/Library/Fonts/Kailasa.ttf
p335
sg20
g21
sbag1
(g8
g3
NtRp336
(dp337
g11
g12
sg13
S'Fira Mono Medium for Powerline'
p338
sg15
I500
sg16
g12
sg17
g12
sg18
V/Users/jjangsangy/Library/Fonts/FuraMono-Medium Powerline.otf
p339
sg20
g21
sbag1
(g8
g3
NtRp340
(dp341
g11
g40
sg13
S'STIXNonUnicode'
p342
sg15
I400
sg16
g12
sg17
g12
sg18
V/Library/Fonts/STIXNonUniIta.otf
p343
sg20
g21
sbag1
(g8
g3
NtRp344
(dp345
g11
g45
sg13
S'Luxi Serif'
p346
sg15
I700
sg16
g12
sg17
g12
sg18
V/usr/X11/lib/X11/fonts/TTF/luxirbi.ttf
p347
sg20
g21
sbag1
(g8
g3
NtRp348
(dp349
g11
g12
sg13
S'Luxi Mono'
p350
sg15
I700
sg16
g12
sg17
g12
sg18
V/usr/X11R6/lib/X11/fonts/TTF/luximb.ttf
p351
sg20
g21
sbag1
(g8
g3
NtRp352
(dp353
g11
g12
sg13
S'Comic Sans MS'
p354
sg15
I700
sg16
g12
sg17
g12
sg18
V/Library/Fonts/Comic Sans MS Bold.ttf
p355
sg20
g21
sbag1
(g8
g3
NtRp356
(dp357
g11
g12
sg13
S'Anonymous Pro'
p358
sg15
I700
sg16
g12
sg17
g12
sg18
V/Users/jjangsangy/Library/Fonts/Anonymous Pro B.ttf
p359
sg20
g21
sbag1
(g8
g3
NtRp360
(dp361
g11
g45
sg13
S'DejaVu Sans'
p362
sg15
I400
sg16
g12
sg17
g12
sg18
V/Users/jjangsangy/Library/Fonts/DejaVuSans-Oblique.ttf
p363
sg20
g21
sbag1
(g8
g3
NtRp364
(dp365
g11
g12
sg13
S'Serto Urhoy'
p366
sg15
I400
sg16
g12
sg17
g12
sg18
V/usr/X11/lib/X11/fonts/OTF/SyrCOMUrhoy.otf
p367
sg20
g21
sbag1
(g8
g3
NtRp368
(dp369
g11
g12
sg13
S'Meslo LG S for Powerline'
p370
sg15
I400
sg16
g12
sg17
g12
sg18
V/Users/jjangsangy/Library/Fonts/Meslo LG S Regular for Powerline.otf
p371
sg20
g21
sbag1
(g8
g3
NtRp372
(dp373
g11
g12
sg13
S'Apple SD Gothic Neo'
p374
sg15
I700
sg16
g12
sg17
g12
sg18
V/Library/Fonts/AppleSDGothicNeo-SemiBold.otf
p375
sg20
g21
sbag1
(g8
g3
NtRp376
(dp377
g11
g12
sg13
S'STIXNonUnicode'
p378
sg15
I700
sg16
g12
sg17
g12
sg18
V/Library/Fonts/STIXNonUniBol.otf
p379
sg20
g21
sbag1
(g8
g3
NtRp380
(dp381
g11
g12
sg13
S'Webdings'
p382
sg15
I400
sg16
g12
sg17
g12
sg18
V/Library/Fonts/Webdings.ttf
p383
sg20
g21
sbag1
(g8
g3
NtRp384
(dp385
g11
g12
sg13
S'Apple Braille'
p386
sg15
I400
sg16
g12
sg17
g12
sg18
V/System/Library/Fonts/Apple Braille Pinpoint 6 Dot.ttf
p387
sg20
g21
sbag1
(g8
g3
NtRp388
(dp389
g11
g12
sg13
S'Symbol'
p390
sg15
I400
sg16
g12
sg17
g12
sg18
V/System/Library/Fonts/Symbol.ttf
p391
sg20
g21
sbag1
(g8
g3
NtRp392
(dp393
g11
g12
sg13
S'Fira Sans'
p394
sg15
I800
sg16
g12
sg17
g12
sg18
V/Users/jjangsangy/Library/Fonts/FiraSans-Heavy.otf
p395
sg20
g21
sbag1
(g8
g3
NtRp396
(dp397
g11
g12
sg13
S'STHeiti'
p398
sg15
I400
sg16
g12
sg17
g12
sg18
V/Library/Fonts/\u534e\u6587\u7ec6\u9ed1.ttf
p399
sg20
g21
sbag1
(g8
g3
NtRp400
(dp401
g11
g12
sg13
S'Luxi Serif'
p402
sg15
I400
sg16
g12
sg17
g12
sg18
V/usr/X11R6/lib/X11/fonts/TTF/luxirr.ttf
p403
sg20
g21
sbag1
(g8
g3
NtRp404
(dp405
g11
g12
sg13
S'STIXIntegralsUpSm'
p406
sg15
I400
sg16
g12
sg17
g12
sg18
V/Library/Fonts/STIXIntUpSmReg.otf
p407
sg20
g21
sbag1
(g8
g3
NtRp408
(dp409
g11
g40
sg13
S'Courier New'
p410
sg15
I400
sg16
g12
sg17
g12
sg18
V/Library/Fonts/Courier New Italic.ttf
p411
sg20
g21
sbag1
(g8
g3
NtRp412
(dp413
g11
g12
sg13
S'Arial Black'
p414
sg15
I900
sg16
g12
sg17
g12
sg18
V/Library/Fonts/Arial Black.ttf
p415
sg20
g21
sbag1
(g8
g3
NtRp416
(dp417
g11
g40
sg13
S'STIXGeneral'
p418
sg15
I400
sg16
g12
sg17
g12
sg18
V/Library/Fonts/STIXGeneralItalic.otf
p419
sg20
g21
sbag1
(g8
g3
NtRp420
(dp421
g11
g40
sg13
S'Ubuntu Mono derivative Powerline'
p422
sg15
I400
sg16
g12
sg17
g12
sg18
V/Users/jjangsangy/Library/Fonts/Ubuntu Mono derivative Powerline Italic.ttf
p423
sg20
g21
sbag1
(g8
g3
NtRp424
(dp425
g11
g40
sg13
S'DejaVu Serif'
p426
sg15
I400
sg16
Vcondensed
p427
sg17
g12
sg18
V/Users/jjangsangy/Library/Fonts/DejaVuSerifCondensed-Italic.ttf
p428
sg20
g21
sbag1
(g8
g3
NtRp429
(dp430
g11
g12
sg13
S'STIXSizeFourSym'
p431
sg15
I400
sg16
g12
sg17
g12
sg18
V/Library/Fonts/STIXSizFourSymReg.otf
p432
sg20
g21
sbag1
(g8
g3
NtRp433
(dp434
g11
g40
sg13
S'monofur for Powerline'
p435
sg15
I400
sg16
g12
sg17
g12
sg18
V/Users/jjangsangy/Library/Fonts/Monofur Italic for Powerline.ttf
p436
sg20
g21
sbag1
(g8
g3
NtRp437
(dp438
g11
g12
sg13
S'Apple SD Gothic Neo'
p439
sg15
I700
sg16
g12
sg17
g12
sg18
V/System/Library/Fonts/AppleSDGothicNeo-Bold.otf
p440
sg20
g21
sbag1
(g8
g3
NtRp441
(dp442
g11
g40
sg13
S'Ubuntu'
p443
sg15
I500
sg16
g12
sg17
g12
sg18
V/Users/jjangsangy/Library/Fonts/Ubuntu-MI.ttf
p444
sg20
g21
sbag1
(g8
g3
NtRp445
(dp446
g11
g12
sg13
S'Comic Sans MS'
p447
sg15
I400
sg16
g12
sg17
g12
sg18
V/Library/Fonts/Comic Sans MS.ttf
p448
sg20
g21
sbag1
(g8
g3
NtRp449
(dp450
g11
g12
sg13
S'Ubuntu'
p451
sg15
I400
sg16
g12
sg17
g12
sg18
V/Users/jjangsangy/Library/Fonts/Ubuntu-R.ttf
p452
sg20
g21
sbag1
(g8
g3
NtRp453
(dp454
g11
g12
sg13
S'Droid Serif'
p455
sg15
I700
sg16
g12
sg17
g12
sg18
V/Users/jjangsangy/Library/Fonts/DroidSerif-Bold.ttf
p456
sg20
g21
sbag1
(g8
g3
NtRp457
(dp458
g11
g12
sg13
S'DejaVu Serif'
p459
sg15
I400
sg16
g12
sg17
g12
sg18
V/Users/jjangsangy/Library/Fonts/DejaVuSerif.ttf
p460
sg20
g21
sbag1
(g8
g3
NtRp461
(dp462
g11
g12
sg13
S'STIXSizeFourSym'
p463
sg15
I700
sg16
g12
sg17
g12
sg18
V/Library/Fonts/STIXSizFourSymBol.otf
p464
sg20
g21
sbag1
(g8
g3
NtRp465
(dp466
g11
g12
sg13
S'Source Code Pro'
p467
sg15
I700
sg16
g12
sg17
g12
sg18
V/Users/jjangsangy/Library/Fonts/SourceCodePro-Bold.otf
p468
sg20
g21
sbag1
(g8
g3
NtRp469
(dp470
g11
g12
sg13
S'Droid Sans Mono'
p471
sg15
I400
sg16
g12
sg17
g12
sg18
V/Users/jjangsangy/Library/Fonts/DroidSansMono.ttf
p472
sg20
g21
sbag1
(g8
g3
NtRp473
(dp474
g11
g12
sg13
S'Yuppy SC'
p475
sg15
I400
sg16
g12
sg17
g12
sg18
V/Library/Fonts/YuppySC-Regular.otf
p476
sg20
g21
sbag1
(g8
g3
NtRp477
(dp478
g11
g12
sg13
S'Anonymous Pro'
p479
sg15
I400
sg16
g12
sg17
g12
sg18
V/Users/jjangsangy/Library/Fonts/Anonymous Pro.ttf
p480
sg20
g21
sbag1
(g8
g3
NtRp481
(dp482
g11
g12
sg13
S'Wingdings'
p483
sg15
I400
sg16
g12
sg17
g12
sg18
V/Library/Fonts/Wingdings.ttf
p484
sg20
g21
sbag1
(g8
g3
NtRp485
(dp486
g11
g12
sg13
S'Impact'
p487
sg15
I400
sg16
g12
sg17
g12
sg18
V/Library/Fonts/Impact.ttf
p488
sg20
g21
sbag1
(g8
g3
NtRp489
(dp490
g11
g12
sg13
S'Fira Sans'
p491
sg15
I200
sg16
g12
sg17
g12
sg18
V/Users/jjangsangy/Library/Fonts/FiraSans-UltraLight.otf
p492
sg20
g21
sbag1
(g8
g3
NtRp493
(dp494
g11
g12
sg13
S'Tahoma'
p495
sg15
I700
sg16
g12
sg17
g12
sg18
V/Library/Fonts/Tahoma Bold.ttf
p496
sg20
g21
sbag1
(g8
g3
NtRp497
(dp498
g11
g40
sg13
S'Source Code Pro'
p499
sg15
I200
sg16
g12
sg17
g12
sg18
V/Users/jjangsangy/Library/Fonts/SourceCodePro-ExtraLightIt.otf
p500
sg20
g21
sbag1
(g8
g3
NtRp501
(dp502
g11
g40
sg13
S'Georgia'
p503
sg15
I700
sg16
g12
sg17
g12
sg18
V/Library/Fonts/Georgia Bold Italic.ttf
p504
sg20
g21
sbag1
(g8
g3
NtRp505
(dp506
g11
g40
sg13
S'Ubuntu'
p507
sg15
I700
sg16
g12
sg17
g12
sg18
V/Users/jjangsangy/Library/Fonts/Ubuntu-BI.ttf
p508
sg20
g21
sbag1
(g8
g3
NtRp509
(dp510
g11
g12
sg13
S'Apple Braille'
p511
sg15
I400
sg16
g12
sg17
g12
sg18
V/System/Library/Fonts/Apple Braille.ttf
p512
sg20
g21
sbag1
(g8
g3
NtRp513
(dp514
g11
g40
sg13
S'Anonymous Pro'
p515
sg15
I700
sg16
g12
sg17
g12
sg18
V/Users/jjangsangy/Library/Fonts/Anonymous Pro BI.ttf
p516
sg20
g21
sbag1
(g8
g3
NtRp517
(dp518
g11
g45
sg13
S'Luxi Mono'
p519
sg15
I700
sg16
g12
sg17
g12
sg18
V/usr/X11/lib/X11/fonts/TTF/luximbi.ttf
p520
sg20
g21
sbag1
(g8
g3
NtRp521
(dp522
g11
g12
sg13
S'Hoefler Text'
p523
sg15
I400
sg16
g12
sg17
g12
sg18
V/Library/Fonts/Hoefler Text Ornaments.ttf
p524
sg20
g21
sbag1
(g8
g3
NtRp525
(dp526
g11
g12
sg13
S'Wawati SC'
p527
sg15
I400
sg16
g12
sg17
g12
sg18
V/Library/Fonts/WawaSC-Regular.otf
p528
sg20
g21
sbag1
(g8
g3
NtRp529
(dp530
g11
g12
sg13
S'Source Code Pro for Powerline'
p531
sg15
I700
sg16
g12
sg17
g12
sg18
V/Users/jjangsangy/Library/Fonts/Sauce Code Powerline Semibold.otf
p532
sg20
g21
sbag1
(g8
g3
NtRp533
(dp534
g11
g12
sg13
S'PilGi'
p535
sg15
I400
sg16
g12
sg17
g12
sg18
V/Library/Fonts/Pilgiche.ttf
p536
sg20
g21
sbag1
(g8
g3
NtRp537
(dp538
g11
g12
sg13
S'monofur for Powerline'
p539
sg15
I700
sg16
g12
sg17
g12
sg18
V/Users/jjangsangy/Library/Fonts/Monofur Bold for Powerline.ttf
p540
sg20
g21
sbag1
(g8
g3
NtRp541
(dp542
g11
g40
sg13
S'Source Code Pro'
p543
sg15
I500
sg16
g12
sg17
g12
sg18
V/Users/jjangsangy/Library/Fonts/SourceCodePro-MediumIt.otf
p544
sg20
g21
sbag1
(g8
g3
NtRp545
(dp546
g11
g12
sg13
S'YuGothic'
p547
sg15
I400
sg16
g12
sg17
g12
sg18
V/Library/Fonts/Yu Gothic Medium.otf
p548
sg20
g21
sbag1
(g8
g3
NtRp549
(dp550
g11
g12
sg13
S'Gujarati MT'
p551
sg15
I700
sg16
g12
sg17
g12
sg18
V/Library/Fonts/GujaratiMTBold.ttf
p552
sg20
g21
sbag1
(g8
g3
NtRp553
(dp554
g11
g12
sg13
S'DejaVu Sans Mono for Powerline'
p555
sg15
I400
sg16
g12
sg17
g12
sg18
V/Users/jjangsangy/Library/Fonts/DejaVu Sans Mono for Powerline.ttf
p556
sg20
g21
sbag1
(g8
g3
NtRp557
(dp558
g11
g12
sg13
S'Fira Sans'
p559
sg15
I400
sg16
g12
sg17
g12
sg18
V/Users/jjangsangy/Library/Fonts/FiraSans-Ultra.otf
p560
sg20
g21
sbag1
(g8
g3
NtRp561
(dp562
g11
g45
sg13
S'Luxi Sans'
p563
sg15
I400
sg16
g12
sg17
g12
sg18
V/usr/X11/lib/X11/fonts/TTF/luxisri.ttf
p564
sg20
g21
sbag1
(g8
g3
NtRp565
(dp566
g11
g12
sg13
S'Zapf Dingbats'
p567
sg15
I400
sg16
g12
sg17
g12
sg18
V/System/Library/Fonts/ZapfDingbats.ttf
p568
sg20
g21
sbag1
(g8
g3
NtRp569
(dp570
g11
g12
sg13
S'Cutive Mono'
p571
sg15
I400
sg16
g12
sg17
g12
sg18
V/Users/jjangsangy/Library/Fonts/CutiveMono-Regular.ttf
p572
sg20
g21
sbag1
(g8
g3
NtRp573
(dp574
g11
g12
sg13
S'Ubuntu'
p575
sg15
I500
sg16
g12
sg17
g12
sg18
V/Users/jjangsangy/Library/Fonts/Ubuntu-M.ttf
p576
sg20
g21
sbag1
(g8
g3
NtRp577
(dp578
g11
g12
sg13
S'Ubuntu Mono derivative Powerline'
p579
sg15
I700
sg16
g12
sg17
g12
sg18
V/Users/jjangsangy/Library/Fonts/Ubuntu Mono derivative Powerline Bold.ttf
p580
sg20
g21
sbag1
(g8
g3
NtRp581
(dp582
g11
g40
sg13
S'Ubuntu Mono derivative Powerline'
p583
sg15
I700
sg16
g12
sg17
g12
sg18
V/Users/jjangsangy/Library/Fonts/Ubuntu Mono derivative Powerline Bold Italic.ttf
p584
sg20
g21
sbag1
(g8
g3
NtRp585
(dp586
g11
g12
sg13
S'Luminari'
p587
sg15
I400
sg16
g12
sg17
g12
sg18
V/Library/Fonts/Luminari.ttf
p588
sg20
g21
sbag1
(g8
g3
NtRp589
(dp590
g11
g12
sg13
S'DejaVu Serif'
p591
sg15
I700
sg16
g12
sg17
g12
sg18
V/Users/jjangsangy/Library/Fonts/DejaVuSerif-Bold.ttf
p592
sg20
g21
sbag1
(g8
g3
NtRp593
(dp594
g11
g12
sg13
S'STIXIntegralsSm'
p595
sg15
I700
sg16
g12
sg17
g12
sg18
V/Library/Fonts/STIXIntSmBol.otf
p596
sg20
g21
sbag1
(g8
g3
NtRp597
(dp598
g11
g40
sg13
S'Liberation Mono for Powerline'
p599
sg15
I700
sg16
g12
sg17
g12
sg18
V/Users/jjangsangy/Library/Fonts/Literation Mono Powerline Bold Italic.ttf
p600
sg20
g21
sbag1
(g8
g3
NtRp601
(dp602
g11
g12
sg13
S'Bradley Hand'
p603
sg15
I700
sg16
g12
sg17
g12
sg18
V/Library/Fonts/Bradley Hand Bold.ttf
p604
sg20
g21
sbag1
(g8
g3
NtRp605
(dp606
g11
g12
sg13
S'Fira Sans'
p607
sg15
I400
sg16
g12
sg17
g12
sg18
V/Users/jjangsangy/Library/Fonts/FiraSans-Two.otf
p608
sg20
g21
sbag1
(g8
g3
NtRp609
(dp610
g11
g12
sg13
S'Apple SD Gothic Neo'
p611
sg15
I200
sg16
g12
sg17
g12
sg18
V/Library/Fonts/AppleSDGothicNeo-Light.otf
p612
sg20
g21
sbag1
(g8
g3
NtRp613
(dp614
g11
g45
sg13
S'DejaVu Sans Mono for Powerline'
p615
sg15
I400
sg16
g12
sg17
g12
sg18
V/Users/jjangsangy/Library/Fonts/DejaVu Sans Mono Oblique for Powerline.ttf
p616
sg20
g21
sbag1
(g8
g3
NtRp617
(dp618
g11
g12
sg13
S'Arial'
p619
sg15
I700
sg16
g12
sg17
g12
sg18
V/Library/Fonts/Arial Bold.ttf
p620
sg20
g21
sbag1
(g8
g3
NtRp621
(dp622
g11
g12
sg13
S'Hiragino Sans GB'
p623
sg15
I400
sg16
g12
sg17
g12
sg18
V/Library/Fonts/Hiragino Sans GB W3.otf
p624
sg20
g21
sbag1
(g8
g3
NtRp625
(dp626
g11
g12
sg13
S'STFangsong'
p627
sg15
I400
sg16
g12
sg17
g12
sg18
V/Library/Fonts/\u534e\u6587\u4eff\u5b8b.ttf
p628
sg20
g21
sbag1
(g8
g3
NtRp629
(dp630
g11
g12
sg13
S'Luxi Serif'
p631
sg15
I700
sg16
g12
sg17
g12
sg18
V/usr/X11R6/lib/X11/fonts/TTF/luxirb.ttf
p632
sg20
g21
sbag1
(g8
g3
NtRp633
(dp634
g11
g12
sg13
S'Fira Mono for Powerline'
p635
sg15
I700
sg16
g12
sg17
g12
sg18
V/Users/jjangsangy/Library/Fonts/FuraMono-Bold Powerline.otf
p636
sg20
g21
sbag1
(g8
g3
NtRp637
(dp638
g11
g12
sg13
S'STHeiti'
p639
sg15
I400
sg16
g12
sg17
g12
sg18
V/Library/Fonts/\u534e\u6587\u9ed1\u4f53.ttf
p640
sg20
g21
sbag1
(g8
g3
NtRp641
(dp642
g11
g12
sg13
S'Source Code Pro'
p643
sg15
I400
sg16
g12
sg17
g12
sg18
V/Users/jjangsangy/Library/Fonts/SourceCodePro-Regular.otf
p644
sg20
g21
sbag1
(g8
g3
NtRp645
(dp646
g11
g12
sg13
S'Verdana'
p647
sg15
I400
sg16
g12
sg17
g12
sg18
V/Library/Fonts/Verdana.ttf
p648
sg20
g21
sbag1
(g8
g3
NtRp649
(dp650
g11
g12
sg13
S'Farisi'
p651
sg15
I400
sg16
g12
sg17
g12
sg18
V/Library/Fonts/Farisi.ttf
p652
sg20
g21
sbag1
(g8
g3
NtRp653
(dp654
g11
g12
sg13
S'Meslo LG M DZ for Powerline'
p655
sg15
I400
sg16
g12
sg17
g12
sg18
V/Users/jjangsangy/Library/Fonts/Meslo LG M DZ Regular for Powerline.otf
p656
sg20
g21
sbag1
(g8
g3
NtRp657
(dp658
g11
g12
sg13
S'Luxi Sans'
p659
sg15
I700
sg16
g12
sg17
g12
sg18
V/usr/X11/lib/X11/fonts/TTF/luxisb.ttf
p660
sg20
g21
sbag1
(g8
g3
NtRp661
(dp662
g11
g12
sg13
S'STIXNonUnicode'
p663
sg15
I400
sg16
g12
sg17
g12
sg18
V/Library/Fonts/STIXNonUni.otf
p664
sg20
g21
sbag1
(g8
g3
NtRp665
(dp666
g11
g12
sg13
S'Bodoni 72 Smallcaps'
p667
sg15
I400
sg16
g12
sg17
g12
sg18
V/Library/Fonts/Bodoni 72 Smallcaps Book.ttf
p668
sg20
g21
sbag1
(g8
g3
NtRp669
(dp670
g11
g40
sg13
S'Arial'
p671
sg15
I400
sg16
g12
sg17
g12
sg18
V/Library/Fonts/Arial Italic.ttf
p672
sg20
g21
sbag1
(g8
g3
NtRp673
(dp674
g11
g40
sg13
S'STIXNonUnicode'
p675
sg15
I700
sg16
g12
sg17
g12
sg18
V/Library/Fonts/STIXNonUniBolIta.otf
p676
sg20
g21
sbag1
(g8
g3
NtRp677
(dp678
g11
g12
sg13
S'Droid Sans Mono Dotted for Powerline'
p679
sg15
I400
sg16
g12
sg17
g12
sg18
V/Users/jjangsangy/Library/Fonts/Droid Sans Mono Dotted for Powerline.ttf
p680
sg20
g21
sbag1
(g8
g3
NtRp681
(dp682
g11
g12
sg13
S'Fira Sans'
p683
sg15
I700
sg16
g12
sg17
g12
sg18
V/Users/jjangsangy/Library/Fonts/FiraSans-SemiBold.otf
p684
sg20
g21
sbag1
(g8
g3
NtRp685
(dp686
g11
g12
sg13
S'Fira Sans'
p687
sg15
I400
sg16
g12
sg17
g12
sg18
V/Users/jjangsangy/Library/Fonts/FiraSans-Hair.otf
p688
sg20
g21
sbag1
(g8
g3
NtRp689
(dp690
g11
g45
sg13
S'DejaVu Sans Mono'
p691
sg15
I400
sg16
g12
sg17
g12
sg18
V/Users/jjangsangy/Library/Fonts/DejaVuSansMono-Oblique.ttf
p692
sg20
g21
sbag1
(g8
g3
NtRp693
(dp694
g11
g12
sg13
S'STIXIntegralsSm'
p695
sg15
I400
sg16
g12
sg17
g12
sg18
V/Library/Fonts/STIXIntSmReg.otf
p696
sg20
g21
sbag1
(g8
g3
NtRp697
(dp698
g11
g40
sg13
S'DejaVu Serif'
p699
sg15
I700
sg16
g12
sg17
g12
sg18
V/Users/jjangsangy/Library/Fonts/DejaVuSerif-BoldItalic.ttf
p700
sg20
g21
sbag1
(g8
g3
NtRp701
(dp702
g11
g40
sg13
S'Verdana'
p703
sg15
I400
sg16
g12
sg17
g12
sg18
V/Library/Fonts/Verdana Italic.ttf
p704
sg20
g21
sbag1
(g8
g3
NtRp705
(dp706
g11
g12
sg13
S'Source Code Pro for Powerline'
p707
sg15
I200
sg16
g12
sg17
g12
sg18
V/Users/jjangsangy/Library/Fonts/Sauce Code Powerline Light.otf
p708
sg20
g21
sbag1
(g8
g3
NtRp709
(dp710
g11
g12
sg13
S'Chalkduster'
p711
sg15
I400
sg16
g12
sg17
g12
sg18
V/Library/Fonts/Chalkduster.ttf
p712
sg20
g21
sbag1
(g8
g3
NtRp713
(dp714
g11
g12
sg13
S'Estrangelo Antioch'
p715
sg15
I400
sg16
g12
sg17
g12
sg18
V/usr/X11/lib/X11/fonts/OTF/SyrCOMAntioch.otf
p716
sg20
g21
sbag1
(g8
g3
NtRp717
(dp718
g11
g12
sg13
S'Ubuntu Mono derivative Powerline'
p719
sg15
I400
sg16
g12
sg17
g12
sg18
V/Users/jjangsangy/Library/Fonts/Ubuntu Mono derivative Powerline.ttf
p720
sg20
g21
sbag1
(g8
g3
NtRp721
(dp722
g11
g12
sg13
S'Weibei TC'
p723
sg15
I700
sg16
g12
sg17
g12
sg18
V/Library/Fonts/WeibeiTC-Bold.otf
p724
sg20
g21
sbag1
(g8
g3
NtRp725
(dp726
g11
g12
sg13
S'Serto Batnan'
p727
sg15
I700
sg16
g12
sg17
g12
sg18
V/usr/X11/lib/X11/fonts/OTF/SyrCOMBatnanBold.otf
p728
sg20
g21
sbag1
(g8
g3
NtRp729
(dp730
g11
g12
sg13
S'Serto Jerusalem'
p731
sg15
I700
sg16
g12
sg17
g12
sg18
V/usr/X11/lib/X11/fonts/OTF/SyrCOMJerusalemBold.otf
p732
sg20
g21
sbag1
(g8
g3
NtRp733
(dp734
g11
g12
sg13
S'Oxygen'
p735
sg15
I400
sg16
g12
sg17
g12
sg18
V/Users/jjangsangy/Library/Fonts/Oxygen-Regular.ttf
p736
sg20
g21
sbag1
(g8
g3
NtRp737
(dp738
g11
g12
sg13
S'Droid Sans Mono for Powerline'
p739
sg15
I400
sg16
g12
sg17
g12
sg18
V/Users/jjangsangy/Library/Fonts/Droid Sans Mono for Powerline.otf
p740
sg20
g21
sbag1
(g8
g3
NtRp741
(dp742
g11
g12
sg13
S'STIXIntegralsUp'
p743
sg15
I400
sg16
g12
sg17
g12
sg18
V/Library/Fonts/STIXIntUpReg.otf
p744
sg20
g21
sbag1
(g8
g3
NtRp745
(dp746
g11
g45
sg13
S'DejaVu Sans'
p747
sg15
I700
sg16
g12
sg17
g12
sg18
V/Users/jjangsangy/Library/Fonts/DejaVuSans-BoldOblique.ttf
p748
sg20
g21
sbag1
(g8
g3
NtRp749
(dp750
g11
g12
sg13
S'Big Caslon'
p751
sg15
I500
sg16
g12
sg17
g12
sg18
V/Library/Fonts/BigCaslon.ttf
p752
sg20
g21
sbag1
(g8
g3
NtRp753
(dp754
g11
g12
sg13
S'Ayuthaya'
p755
sg15
I400
sg16
g12
sg17
g12
sg18
V/Library/Fonts/Ayuthaya.ttf
p756
sg20
g21
sbag1
(g8
g3
NtRp757
(dp758
g11
g12
sg13
S'Cutive'
p759
sg15
I400
sg16
g12
sg17
g12
sg18
V/Users/jjangsangy/Library/Fonts/Cutive-Regular.ttf
p760
sg20
g21
sbag1
(g8
g3
NtRp761
(dp762
g11
g40
sg13
S'Ubuntu'
p763
sg15
I400
sg16
g12
sg17
g12
sg18
V/Users/jjangsangy/Library/Fonts/Ubuntu-RI.ttf
p764
sg20
g21
sbag1
(g8
g3
NtRp765
(dp766
g11
g12
sg13
S'Apple SD Gothic Neo'
p767
sg15
I400
sg16
g12
sg17
g12
sg18
V/System/Library/Fonts/AppleSDGothicNeo-Regular.otf
p768
sg20
g21
sbag1
(g8
g3
NtRp769
(dp770
g11
g40
sg13
S'Fira Sans'
p771
sg15
I400
sg16
g12
sg17
g12
sg18
V/Users/jjangsangy/Library/Fonts/FiraSans-UltraItalic.otf
p772
sg20
g21
sbag1
(g8
g3
NtRp773
(dp774
g11
g12
sg13
S'Ubuntu'
p775
sg15
I700
sg16
g12
sg17
g12
sg18
V/Users/jjangsangy/Library/Fonts/Ubuntu-B.ttf
p776
sg20
g21
sbag1
(g8
g3
NtRp777
(dp778
g11
g12
sg13
S'YuMincho'
p779
sg15
I400
sg16
g12
sg17
g12
sg18
V/Library/Fonts/Yu Mincho Medium.otf
p780
sg20
g21
sbag1
(g8
g3
NtRp781
(dp782
g11
g12
sg13
S'Fira Sans'
p783
sg15
I500
sg16
g12
sg17
g12
sg18
V/Users/jjangsangy/Library/Fonts/FiraSans-Medium.otf
p784
sg20
g21
sbag1
(g8
g3
NtRp785
(dp786
g11
g40
sg13
S'Fira Sans'
p787
sg15
I400
sg16
g12
sg17
g12
sg18
V/Users/jjangsangy/Library/Fonts/FiraSans-Italic.otf
p788
sg20
g21
sbag1
(g8
g3
NtRp789
(dp790
g11
g12
sg13
S'Andale Mono'
p791
sg15
I400
sg16
g12
sg17
g12
sg18
V/Library/Fonts/Andale Mono.ttf
p792
sg20
g21
sbag1
(g8
g3
NtRp793
(dp794
g11
g12
sg13
S'monofur for Powerline'
p795
sg15
I400
sg16
g12
sg17
g12
sg18
V/Users/jjangsangy/Library/Fonts/Monofur for Powerline.ttf
p796
sg20
g21
sbag1
(g8
g3
NtRp797
(dp798
g11
g12
sg13
S'Silom'
p799
sg15
I400
sg16
g12
sg17
g12
sg18
V/Library/Fonts/Silom.ttf
p800
sg20
g21
sbag1
(g8
g3
NtRp801
(dp802
g11
g45
sg13
S'Mshtakan'
p803
sg15
I700
sg16
g12
sg17
g12
sg18
V/Library/Fonts/MshtakanBoldOblique.ttf
p804
sg20
g21
sbag1
(g8
g3
NtRp805
(dp806
g11
g40
sg13
S'Ubuntu'
p807
sg15
I200
sg16
g12
sg17
g12
sg18
V/Users/jjangsangy/Library/Fonts/Ubuntu-LI.ttf
p808
sg20
g21
sbag1
(g8
g3
NtRp809
(dp810
g11
g12
sg13
S'Luxi Mono'
p811
sg15
I400
sg16
g12
sg17
g12
sg18
V/usr/X11/lib/X11/fonts/TTF/luximr.ttf
p812
sg20
g21
sbag1
(g8
g3
NtRp813
(dp814
g11
g40
sg13
S'Fira Sans'
p815
sg15
I500
sg16
g12
sg17
g12
sg18
V/Users/jjangsangy/Library/Fonts/FiraSans-MediumItalic.otf
p816
sg20
g21
sbag1
(g8
g3
NtRp817
(dp818
g11
g12
sg13
S'Ubuntu'
p819
sg15
I200
sg16
g12
sg17
g12
sg18
V/Users/jjangsangy/Library/Fonts/Ubuntu-L.ttf
p820
sg20
g21
sbag1
(g8
g3
NtRp821
(dp822
g11
g12
sg13
S'Lao Sangam MN'
p823
sg15
I400
sg16
g12
sg17
g12
sg18
V/Library/Fonts/Lao Sangam MN.ttf
p824
sg20
g21
sbag1
(g8
g3
NtRp825
(dp826
g11
g12
sg13
S'Goha-Tibeb Zemen'
p827
sg15
I400
sg16
g12
sg17
g12
sg18
V/usr/X11R6/lib/X11/fonts/TTF/GohaTibebZemen.ttf
p828
sg20
g21
sbag1
(g8
g3
NtRp829
(dp830
g11
g12
sg13
S'Hiragino Mincho Pro'
p831
sg15
I700
sg16
g12
sg17
g12
sg18
V/Library/Fonts/\u30d2\u30e9\u30ad\u3099\u30ce\u660e\u671d Pro W6.otf
p832
sg20
g21
sbag1
(g8
g3
NtRp833
(dp834
g11
g12
sg13
S'Estrangelo Nisibin Outline'
p835
sg15
I400
sg16
g12
sg17
g12
sg18
V/usr/X11/lib/X11/fonts/OTF/SyrCOMNisibinOutline.otf
p836
sg20
g21
sbag1
(g8
g3
NtRp837
(dp838
g11
g12
sg13
S'Bodoni Ornaments'
p839
sg15
I400
sg16
g12
sg17
g12
sg18
V/Library/Fonts/Bodoni Ornaments.ttf
p840
sg20
g21
sbag1
(g8
g3
NtRp841
(dp842
g11
g12
sg13
S'DejaVu Serif'
p843
sg15
I700
sg16
g427
sg17
g12
sg18
V/Users/jjangsangy/Library/Fonts/DejaVuSerifCondensed-Bold.ttf
p844
sg20
g21
sbag1
(g8
g3
NtRp845
(dp846
g11
g12
sg13
S'Meslo LG M for Powerline'
p847
sg15
I400
sg16
g12
sg17
g12
sg18
V/Users/jjangsangy/Library/Fonts/Meslo LG M Regular for Powerline.otf
p848
sg20
g21
sbag1
(g8
g3
NtRp849
(dp850
g11
g12
sg13
S'Liberation Mono for Powerline'
p851
sg15
I700
sg16
g12
sg17
g12
sg18
V/Users/jjangsangy/Library/Fonts/Literation Mono Powerline Bold.ttf
p852
sg20
g21
sbag1
(g8
g3
NtRp853
(dp854
g11
g12
sg13
S'Verdana'
p855
sg15
I700
sg16
g12
sg17
g12
sg18
V/Library/Fonts/Verdana Bold.ttf
p856
sg20
g21
sbag1
(g8
g3
NtRp857
(dp858
g11
g12
sg13
S'STIXSizeThreeSym'
p859
sg15
I400
sg16
g12
sg17
g12
sg18
V/Library/Fonts/STIXSizThreeSymReg.otf
p860
sg20
g21
sbag1
(g8
g3
NtRp861
(dp862
g11
g12
sg13
S'DIN Condensed'
p863
sg15
I700
sg16
g427
sg17
g12
sg18
V/Library/Fonts/DIN Condensed Bold.ttf
p864
sg20
g21
sbag1
(g8
g3
NtRp865
(dp866
g11
g12
sg13
S'Inconsolata-g for Powerline'
p867
sg15
I400
sg16
g12
sg17
g12
sg18
V/Users/jjangsangy/Library/Fonts/Inconsolata-g for Powerline.otf
p868
sg20
g21
sbag1
(g8
g3
NtRp869
(dp870
g11
g45
sg13
S'Luxi Serif'
p871
sg15
I400
sg16
g12
sg17
g12
sg18
V/usr/X11R6/lib/X11/fonts/TTF/luxirri.ttf
p872
sg20
g21
sbag1
(g8
g3
NtRp873
(dp874
g11
g40
sg13
S'Fira Sans'
p875
sg15
I400
sg16
g12
sg17
g12
sg18
V/Users/jjangsangy/Library/Fonts/FiraSans-FourItalic.otf
p876
sg20
g21
sbag1
(g8
g3
NtRp877
(dp878
g11
g12
sg13
S'Estrangelo Nisibin'
p879
sg15
I400
sg16
g12
sg17
g12
sg18
V/usr/X11/lib/X11/fonts/OTF/SyrCOMNisibin.otf
p880
sg20
g21
sbag1
(g8
g3
NtRp881
(dp882
g11
g12
sg13
S'Arial'
p883
sg15
I400
sg16
g12
sg17
g12
sg18
V/Library/Fonts/Arial.ttf
p884
sg20
g21
sbag1
(g8
g3
NtRp885
(dp886
g11
g12
sg13
S'AppleGothic'
p887
sg15
I400
sg16
g12
sg17
g12
sg18
V/Library/Fonts/AppleGothic.ttf
p888
sg20
g21
sbag1
(g8
g3
NtRp889
(dp890
g11
g12
sg13
S'Anonymous Pro for Powerline'
p891
sg15
I400
sg16
g12
sg17
g12
sg18
V/Users/jjangsangy/Library/Fonts/Anonymice Powerline.ttf
p892
sg20
g21
sbag1
(g8
g3
NtRp893
(dp894
g11
g12
sg13
S'Arial Narrow'
p895
sg15
I400
sg16
g427
sg17
g12
sg18
V/Library/Fonts/Arial Narrow.ttf
p896
sg20
g21
sbag1
(g8
g3
NtRp897
(dp898
g11
g12
sg13
S'Oxygen Mono'
p899
sg15
I400
sg16
g12
sg17
g12
sg18
V/Users/jjangsangy/Library/Fonts/OxygenMono-Regular.ttf
p900
sg20
g21
sbag1
(g8
g3
NtRp901
(dp902
g11
g45
sg13
S'Mshtakan'
p903
sg15
I400
sg16
g12
sg17
g12
sg18
V/Library/Fonts/MshtakanOblique.ttf
p904
sg20
g21
sbag1
(g8
g3
NtRp905
(dp906
g11
g45
sg13
S'DejaVu Sans'
p907
sg15
I400
sg16
g427
sg17
g12
sg18
V/Users/jjangsangy/Library/Fonts/DejaVuSansCondensed-Oblique.ttf
p908
sg20
g21
sbag1
(g8
g3
NtRp909
(dp910
g11
g40
sg13
S'Fira Sans'
p911
sg15
I700
sg16
g12
sg17
g12
sg18
V/Users/jjangsangy/Library/Fonts/FiraSans-BoldItalic.otf
p912
sg20
g21
sbag1
(g8
g3
NtRp913
(dp914
g11
g12
sg13
S'Source Code Pro for Powerline'
p915
sg15
I900
sg16
g12
sg17
g12
sg18
V/Users/jjangsangy/Library/Fonts/Sauce Code Powerline Black.otf
p916
sg20
g21
sbag1
(g8
g3
NtRp917
(dp918
g11
g12
sg13
S'Serto Mardin'
p919
sg15
I700
sg16
g12
sg17
g12
sg18
V/usr/X11/lib/X11/fonts/OTF/SyrCOMMardinBold.otf
p920
sg20
g21
sbag1
(g8
g3
NtRp921
(dp922
g11
g12
sg13
S'Myanmar Sangam MN'
p923
sg15
I400
sg16
g12
sg17
g12
sg18
V/Library/Fonts/Myanmar Sangam MN.ttf
p924
sg20
g21
sbag1
(g8
g3
NtRp925
(dp926
g11
g12
sg13
S'Arial Narrow'
p927
sg15
I700
sg16
g427
sg17
g12
sg18
V/Library/Fonts/Arial Narrow Bold.ttf
p928
sg20
g21
sbag1
(g8
g3
NtRp929
(dp930
g11
g40
sg13
S'Times New Roman'
p931
sg15
I500
sg16
g12
sg17
g12
sg18
V/Library/Fonts/Times New Roman Italic.ttf
p932
sg20
g21
sbag1
(g8
g3
NtRp933
(dp934
g11
g12
sg13
S'Meslo LG S DZ for Powerline'
p935
sg15
I400
sg16
g12
sg17
g12
sg18
V/Users/jjangsangy/Library/Fonts/Meslo LG S DZ Regular for Powerline.otf
p936
sg20
g21
sbag1
(g8
g3
NtRp937
(dp938
g11
g12
sg13
S'Georgia'
p939
sg15
I400
sg16
g12
sg17
g12
sg18
V/Library/Fonts/Georgia.ttf
p940
sg20
g21
sbag1
(g8
g3
NtRp941
(dp942
g11
g12
sg13
S'Trebuchet MS'
p943
sg15
I700
sg16
g12
sg17
g12
sg18
V/Library/Fonts/Trebuchet MS Bold.ttf
p944
sg20
g21
sbag1
(g8
g3
NtRp945
(dp946
g11
g40
sg13
S'DejaVu Serif'
p947
sg15
I400
sg16
g12
sg17
g12
sg18
V/Users/jjangsangy/Library/Fonts/DejaVuSerif-Italic.ttf
p948
sg20
g21
sbag1
(g8
g3
NtRp949
(dp950
g11
g40
sg13
S'Times New Roman'
p951
sg15
I700
sg16
g12
sg17
g12
sg18
V/Library/Fonts/Times New Roman Bold Italic.ttf
p952
sg20
g21
sbag1
(g8
g3
NtRp953
(dp954
g11
g40
sg13
S'Arial Narrow'
p955
sg15
I400
sg16
g427
sg17
g12
sg18
V/Library/Fonts/Arial Narrow Italic.ttf
p956
sg20
g21
sbag1
(g8
g3
NtRp957
(dp958
g11
g45
sg13
S'DejaVu Sans'
p959
sg15
I700
sg16
g427
sg17
g12
sg18
V/Users/jjangsangy/Library/Fonts/DejaVuSansCondensed-BoldOblique.ttf
p960
sg20
g21
sbag1
(g8
g3
NtRp961
(dp962
g11
g12
sg13
S'Plantagenet Cherokee'
p963
sg15
I400
sg16
g12
sg17
g12
sg18
V/Library/Fonts/PlantagenetCherokee.ttf
p964
sg20
g21
sbag1
(g8
g3
NtRp965
(dp966
g11
g12
sg13
S'Fira Mono for Powerline'
p967
sg15
I400
sg16
g12
sg17
g12
sg18
V/Users/jjangsangy/Library/Fonts/FuraMono-Regular Powerline.otf
p968
sg20
g21
sbag1
(g8
g3
NtRp969
(dp970
g11
g12
sg13
S'STIXVariants'
p971
sg15
I400
sg16
g12
sg17
g12
sg18
V/Library/Fonts/STIXVar.otf
p972
sg20
g21
sbag1
(g8
g3
NtRp973
(dp974
g11
g12
sg13
S'Mishafi'
p975
sg15
I400
sg16
g12
sg17
g12
sg18
V/Library/Fonts/Mishafi.ttf
p976
sg20
g21
sbag1
(g8
g3
NtRp977
(dp978
g11
g12
sg13
S'Droid Sans'
p979
sg15
I400
sg16
g12
sg17
g12
sg18
V/Users/jjangsangy/Library/Fonts/DroidSans.ttf
p980
sg20
g21
sbag1
(g8
g3
NtRp981
(dp982
g11
g12
sg13
S'Fira Sans'
p983
sg15
I200
sg16
g12
sg17
g12
sg18
V/Users/jjangsangy/Library/Fonts/FiraSans-Light.otf
p984
sg20
g21
sbag1
(g8
g3
NtRp985
(dp986
g11
g12
sg13
S'Skia'
p987
sg15
I400
sg16
g12
sg17
g12
sg18
V/Library/Fonts/Skia.ttf
p988
sg20
g21
sbag1
(g8
g3
NtRp989
(dp990
g11
g45
sg13
S'Luxi Sans'
p991
sg15
I700
sg16
g12
sg17
g12
sg18
V/usr/X11R6/lib/X11/fonts/TTF/luxisbi.ttf
p992
sg20
g21
sbag1
(g8
g3
NtRp993
(dp994
g11
g40
sg13
S'Source Code Pro'
p995
sg15
I700
sg16
g12
sg17
g12
sg18
V/Users/jjangsangy/Library/Fonts/SourceCodePro-BoldIt.otf
p996
sg20
g21
sbag1
(g8
g3
NtRp997
(dp998
g11
g12
sg13
S'YuMincho'
p999
sg15
I700
sg16
g12
sg17
g12
sg18
V/Library/Fonts/Yu Mincho Demibold.otf
p1000
sg20
g21
sbag1
(g8
g3
NtRp1001
(dp1002
g11
g12
sg13
S'Luxi Sans'
p1003
sg15
I400
sg16
g12
sg17
g12
sg18
V/usr/X11/lib/X11/fonts/TTF/luxisr.ttf
p1004
sg20
g21
sbag1
(g8
g3
NtRp1005
(dp1006
g11
g40
sg13
S'Courier New'
p1007
sg15
I700
sg16
g12
sg17
g12
sg18
V/Library/Fonts/Courier New Bold Italic.ttf
p1008
sg20
g21
sbag1
(g8
g3
NtRp1009
(dp1010
g11
g12
sg13
S'Arial Rounded MT Bold'
p1011
sg15
I700
sg16
g12
sg17
g12
sg18
V/Library/Fonts/Arial Rounded Bold.ttf
p1012
sg20
g21
sbag1
(g8
g3
NtRp1013
(dp1014
g11
g12
sg13
S'Hiragino Kaku Gothic Std'
p1015
sg15
I700
sg16
g12
sg17
g12
sg18
V/Library/Fonts/\u30d2\u30e9\u30ad\u3099\u30ce\u89d2\u30b3\u3099 Std W8.otf
p1016
sg20
g21
sbag1
(g8
g3
NtRp1017
(dp1018
g11
g12
sg13
S'DejaVu Sans'
p1019
sg15
I700
sg16
g427
sg17
g12
sg18
V/Users/jjangsangy/Library/Fonts/DejaVuSansCondensed-Bold.ttf
p1020
sg20
g21
sbag1
(g8
g3
NtRp1021
(dp1022
g11
g12
sg13
S'STIXSizeOneSym'
p1023
sg15
I400
sg16
g12
sg17
g12
sg18
V/Library/Fonts/STIXSizOneSymReg.otf
p1024
sg20
g21
sbag1
(g8
g3
NtRp1025
(dp1026
g11
g12
sg13
S'InaiMathi'
p1027
sg15
I400
sg16
g12
sg17
g12
sg18
V/Library/Fonts/InaiMathi.ttf
p1028
sg20
g21
sbag1
(g8
g3
NtRp1029
(dp1030
g11
g12
sg13
S'DejaVu Serif'
p1031
sg15
I400
sg16
g427
sg17
g12
sg18
V/Users/jjangsangy/Library/Fonts/DejaVuSerifCondensed.ttf
p1032
sg20
g21
sbag1
(g8
g3
NtRp1033
(dp1034
g11
g12
sg13
S'Fira Sans'
p1035
sg15
I400
sg16
g12
sg17
g12
sg18
V/Users/jjangsangy/Library/Fonts/FiraSans-Eight.otf
p1036
sg20
g21
sbag1
(g8
g3
NtRp1037
(dp1038
g11
g12
sg13
S'Hiragino Mincho ProN'
p1039
sg15
I700
sg16
g12
sg17
g12
sg18
V/System/Library/Fonts/\u30d2\u30e9\u30ad\u3099\u30ce\u660e\u671d ProN W6.otf
p1040
sg20
g21
sbag1
(g8
g3
NtRp1041
(dp1042
g11
g40
sg13
S'Fira Sans'
p1043
sg15
I200
sg16
g12
sg17
g12
sg18
V/Users/jjangsangy/Library/Fonts/FiraSans-UltraLightItalic.otf
p1044
sg20
g21
sbag1
(g8
g3
NtRp1045
(dp1046
g11
g12
sg13
S'HeadLineA'
p1047
sg15
I400
sg16
g12
sg17
g12
sg18
V/Library/Fonts/HeadlineA.ttf
p1048
sg20
g21
sbag1
(g8
g3
NtRp1049
(dp1050
g11
g40
sg13
S'Fira Sans'
p1051
sg15
I700
sg16
g12
sg17
g12
sg18
V/Users/jjangsangy/Library/Fonts/FiraSans-SemiBoldItalic.otf
p1052
sg20
g21
sbag1
(g8
g3
NtRp1053
(dp1054
g11
g12
sg13
S'.Keyboard'
p1055
sg15
I400
sg16
g12
sg17
g12
sg18
V/System/Library/Fonts/Keyboard.ttf
p1056
sg20
g21
sbag1
(g8
g3
NtRp1057
(dp1058
g11
g12
sg13
S'East Syriac Adiabene'
p1059
sg15
I400
sg16
g12
sg17
g12
sg18
V/usr/X11/lib/X11/fonts/OTF/SyrCOMAdiabene.otf
p1060
sg20
g21
sbag1
(g8
g3
NtRp1061
(dp1062
g11
g12
sg13
S'Hiragino Sans GB'
p1063
sg15
I700
sg16
g12
sg17
g12
sg18
V/Library/Fonts/Hiragino Sans GB W6.otf
p1064
sg20
g21
sbag1
(g8
g3
NtRp1065
(dp1066
g11
g12
sg13
S'Microsoft Sans Serif'
p1067
sg15
I400
sg16
g12
sg17
g12
sg18
V/Library/Fonts/Microsoft Sans Serif.ttf
p1068
sg20
g21
sbag1
(g8
g3
NtRp1069
(dp1070
g11
g12
sg13
S'STIXIntegralsUpD'
p1071
sg15
I700
sg16
g12
sg17
g12
sg18
V/Library/Fonts/STIXIntUpDBol.otf
p1072
sg20
g21
sbag1
(g8
g3
NtRp1073
(dp1074
g11
g12
sg13
S'Meslo LG L DZ for Powerline'
p1075
sg15
I400
sg16
g12
sg17
g12
sg18
V/Users/jjangsangy/Library/Fonts/Meslo LG L DZ Regular for Powerline.otf
p1076
sg20
g21
sbag1
(g8
g3
NtRp1077
(dp1078
g11
g12
sg13
S'STIXGeneral'
p1079
sg15
I400
sg16
g12
sg17
g12
sg18
V/Library/Fonts/STIXGeneral.otf
p1080
sg20
g21
sbag1
(g8
g3
NtRp1081
(dp1082
g11
g12
sg13
S'Fira Sans'
p1083
sg15
I400
sg16
g12
sg17
g12
sg18
V/Users/jjangsangy/Library/Fonts/FiraSans-Book.otf
p1084
sg20
g21
sbag1
(g8
g3
NtRp1085
(dp1086
g11
g12
sg13
S'Source Code Pro for Powerline'
p1087
sg15
I700
sg16
g12
sg17
g12
sg18
V/Users/jjangsangy/Library/Fonts/Sauce Code Powerline Bold.otf
p1088
sg20
g21
sbag1
(g8
g3
NtRp1089
(dp1090
g11
g12
sg13
S'Yuppy TC'
p1091
sg15
I400
sg16
g12
sg17
g12
sg18
V/Library/Fonts/YuppyTC-Regular.otf
p1092
sg20
g21
sbag1
(g8
g3
NtRp1093
(dp1094
g11
g12
sg13
S'Apple Chancery'
p1095
sg15
I400
sg16
g12
sg17
g12
sg18
V/Library/Fonts/Apple Chancery.ttf
p1096
sg20
g21
sbag1
(g8
g3
NtRp1097
(dp1098
g11
g40
sg13
S'Source Code Pro'
p1099
sg15
I400
sg16
g12
sg17
g12
sg18
V/Users/jjangsangy/Library/Fonts/SourceCodePro-It.otf
p1100
sg20
g21
sbag1
(g8
g3
NtRp1101
(dp1102
g11
g12
sg13
S'STIXIntegralsUpSm'
p1103
sg15
I700
sg16
g12
sg17
g12
sg18
V/Library/Fonts/STIXIntUpSmBol.otf
p1104
sg20
g21
sbag1
(g8
g3
NtRp1105
(dp1106
g11
g12
sg13
S'STIXSizeOneSym'
p1107
sg15
I700
sg16
g12
sg17
g12
sg18
V/Library/Fonts/STIXSizOneSymBol.otf
p1108
sg20
g21
sbag1
(g8
g3
NtRp1109
(dp1110
g11
g12
sg13
S'Fira Sans'
p1111
sg15
I700
sg16
g12
sg17
g12
sg18
V/Users/jjangsangy/Library/Fonts/FiraSans-ExtraBold.otf
p1112
sg20
g21
sbag1
(g8
g3
NtRp1113
(dp1114
g11
g12
sg13
S'STIXSizeTwoSym'
p1115
sg15
I400
sg16
g12
sg17
g12
sg18
V/Library/Fonts/STIXSizTwoSymReg.otf
p1116
sg20
g21
sbag1
(g8
g3
NtRp1117
(dp1118
g11
g12
sg13
S'Weibei SC'
p1119
sg15
I700
sg16
g12
sg17
g12
sg18
V/Library/Fonts/WeibeiSC-Bold.otf
p1120
sg20
g21
sbag1
(g8
g3
NtRp1121
(dp1122
g11
g12
sg13
S'Estrangelo Edessa'
p1123
sg15
I400
sg16
g12
sg17
g12
sg18
V/usr/X11/lib/X11/fonts/OTF/SyrCOMEdessa.otf
p1124
sg20
g21
sbag1
(g8
g3
NtRp1125
(dp1126
g11
g12
sg13
S'Georgia'
p1127
sg15
I700
sg16
g12
sg17
g12
sg18
V/Library/Fonts/Georgia Bold.ttf
p1128
sg20
g21
sbag1
(g8
g3
NtRp1129
(dp1130
g11
g40
sg13
S'Serto Jerusalem'
p1131
sg15
I400
sg16
g12
sg17
g12
sg18
V/usr/X11/lib/X11/fonts/OTF/SyrCOMJerusalemItalic.otf
p1132
sg20
g21
sbag1
(g8
g3
NtRp1133
(dp1134
g11
g12
sg13
S'Hiragino Kaku Gothic StdN'
p1135
sg15
I700
sg16
g12
sg17
g12
sg18
V/Library/Fonts/\u30d2\u30e9\u30ad\u3099\u30ce\u89d2\u30b3\u3099 StdN W8.otf
p1136
sg20
g21
sbag1
(g8
g3
NtRp1137
(dp1138
g11
g12
sg13
S'STIXIntegralsUpD'
p1139
sg15
I400
sg16
g12
sg17
g12
sg18
V/Library/Fonts/STIXIntUpDReg.otf
p1140
sg20
g21
sbag1
(g8
g3
NtRp1141
(dp1142
g11
g40
sg13
S'Fira Sans'
p1143
sg15
I400
sg16
g12
sg17
g12
sg18
V/Users/jjangsangy/Library/Fonts/FiraSans-ThinItalic.otf
p1144
sg20
g21
sbag1
(g8
g3
NtRp1145
(dp1146
g11
g45
sg13
S'Luxi Mono'
p1147
sg15
I400
sg16
g12
sg17
g12
sg18
V/usr/X11R6/lib/X11/fonts/TTF/luximri.ttf
p1148
sg20
g21
sbag1
(g8
g3
NtRp1149
(dp1150
g11
g40
sg13
S'Fira Sans'
p1151
sg15
I200
sg16
g12
sg17
g12
sg18
V/Users/jjangsangy/Library/Fonts/FiraSans-ExtraLightItalic.otf
p1152
sg20
g21
sbag1
(g8
g3
NtRp1153
(dp1154
g11
g12
sg13
S'Hiragino Mincho Pro'
p1155
sg15
I400
sg16
g12
sg17
g12
sg18
V/Library/Fonts/\u30d2\u30e9\u30ad\u3099\u30ce\u660e\u671d Pro W3.otf
p1156
sg20
g21
sbag1
(g8
g3
NtRp1157
(dp1158
g11
g40
sg13
S'DejaVu Serif'
p1159
sg15
I700
sg16
g427
sg17
g12
sg18
V/Users/jjangsangy/Library/Fonts/DejaVuSerifCondensed-BoldItalic.ttf
p1160
sg20
g21
sbag1
(g8
g3
NtRp1161
(dp1162
g11
g12
sg13
S'Apple SD Gothic Neo'
p1163
sg15
I200
sg16
g12
sg17
g12
sg18
V/Library/Fonts/AppleSDGothicNeo-UltraLight.otf
p1164
sg20
g21
sbag1
(g8
g3
NtRp1165
(dp1166
g11
g12
sg13
S'Arial Unicode MS'
p1167
sg15
I400
sg16
g12
sg17
g12
sg18
V/Library/Fonts/Arial Unicode.ttf
p1168
sg20
g21
sbag1
(g8
g3
NtRp1169
(dp1170
g11
g12
sg13
S'Droid Sans'
p1171
sg15
I700
sg16
g12
sg17
g12
sg18
V/Users/jjangsangy/Library/Fonts/DroidSans-Bold.ttf
p1172
sg20
g21
sbag1
(g8
g3
NtRp1173
(dp1174
g11
g12
sg13
S'Hiragino Mincho ProN'
p1175
sg15
I400
sg16
g12
sg17
g12
sg18
V/System/Library/Fonts/\u30d2\u30e9\u30ad\u3099\u30ce\u660e\u671d ProN W3.otf
p1176
sg20
g21
sbag1
(g8
g3
NtRp1177
(dp1178
g11
g45
sg13
S'DejaVu Sans Mono'
p1179
sg15
I700
sg16
g12
sg17
g12
sg18
V/Users/jjangsangy/Library/Fonts/DejaVuSansMono-BoldOblique.ttf
p1180
sg20
g21
sbag1
(g8
g3
NtRp1181
(dp1182
g11
g12
sg13
S'Apple SD Gothic Neo'
p1183
sg15
I800
sg16
g12
sg17
g12
sg18
V/Library/Fonts/AppleSDGothicNeo-Heavy.otf
p1184
sg20
g21
sbag1
(g8
g3
NtRp1185
(dp1186
g11
g12
sg13
S'Ubuntu Mono'
p1187
sg15
I400
sg16
g12
sg17
g12
sg18
V/Users/jjangsangy/Library/Fonts/UbuntuMono-R.ttf
p1188
sg20
g21
sbag1
(g8
g3
NtRp1189
(dp1190
g11
g12
sg13
S'Fira Sans'
p1191
sg15
I400
sg16
g12
sg17
g12
sg18
V/Users/jjangsangy/Library/Fonts/FiraSans-Regular.otf
p1192
sg20
g21
sbag1
(g8
g3
NtRp1193
(dp1194
g11
g12
sg13
S'DIN Alternate'
p1195
sg15
I700
sg16
g12
sg17
g12
sg18
V/Library/Fonts/DIN Alternate Bold.ttf
p1196
sg20
g21
sbag1
(g8
g3
NtRp1197
(dp1198
g11
g12
sg13
S'Fira Sans'
p1199
sg15
I200
sg16
g12
sg17
g12
sg18
V/Users/jjangsangy/Library/Fonts/FiraSans-ExtraLight.otf
p1200
sg20
g21
sbag1
(g8
g3
NtRp1201
(dp1202
g11
g40
sg13
S'Source Code Pro'
p1203
sg15
I200
sg16
g12
sg17
g12
sg18
V/Users/jjangsangy/Library/Fonts/SourceCodePro-LightIt.otf
p1204
sg20
g21
sbag1
(g8
g3
NtRp1205
(dp1206
g11
g12
sg13
S'DejaVu Sans'
p1207
sg15
I700
sg16
g12
sg17
g12
sg18
V/Users/jjangsangy/Library/Fonts/DejaVuSans-Bold.ttf
p1208
sg20
g21
sbag1
(g8
g3
NtRp1209
(dp1210
g11
g12
sg13
S'Serto Jerusalem Outline'
p1211
sg15
I400
sg16
g12
sg17
g12
sg18
V/usr/X11/lib/X11/fonts/OTF/SyrCOMJerusalemOutline.otf
p1212
sg20
g21
sbag1
(g8
g3
NtRp1213
(dp1214
g11
g12
sg13
S'Anonymous Pro for Powerline'
p1215
sg15
I700
sg16
g12
sg17
g12
sg18
V/Users/jjangsangy/Library/Fonts/Anonymice Powerline Bold.ttf
p1216
sg20
g21
sbag1
(g8
g3
NtRp1217
(dp1218
g11
g12
sg13
S'STIXIntegralsD'
p1219
sg15
I700
sg16
g12
sg17
g12
sg18
V/Library/Fonts/STIXIntDBol.otf
p1220
sg20
g21
sbag1
(g8
g3
NtRp1221
(dp1222
g11
g12
sg13
S'DejaVu Sans'
p1223
sg15
I400
sg16
g12
sg17
g12
sg18
V/Users/jjangsangy/Library/Fonts/DejaVuSans.ttf
p1224
sg20
g21
sbag1
(g8
g3
NtRp1225
(dp1226
g11
g12
sg13
S'NovaMono'
p1227
sg15
I400
sg16
g12
sg17
g12
sg18
V/Users/jjangsangy/Library/Fonts/NovaMono.ttf
p1228
sg20
g21
sbag1
(g8
g3
NtRp1229
(dp1230
g11
g12
sg13
S'Courier New'
p1231
sg15
I400
sg16
g12
sg17
g12
sg18
V/Library/Fonts/Courier New.ttf
p1232
sg20
g21
sbag1
(g8
g3
NtRp1233
(dp1234
g11
g40
sg13
S'Arial Narrow'
p1235
sg15
I700
sg16
g427
sg17
g12
sg18
V/Library/Fonts/Arial Narrow Bold Italic.ttf
p1236
sg20
g21
sbag1
(g8
g3
NtRp1237
(dp1238
g11
g12
sg13
S'Serto Jerusalem'
p1239
sg15
I400
sg16
g12
sg17
g12
sg18
V/usr/X11/lib/X11/fonts/OTF/SyrCOMJerusalem.otf
p1240
sg20
g21
sbag1
(g8
g3
NtRp1241
(dp1242
g11
g12
sg13
S'Zapfino'
p1243
sg15
I400
sg16
g12
sg17
g12
sg18
V/Library/Fonts/Zapfino.ttf
p1244
sg20
g21
sbag1
(g8
g3
NtRp1245
(dp1246
g11
g12
sg13
S'Krungthep'
p1247
sg15
I400
sg16
g12
sg17
g12
sg18
V/Library/Fonts/Krungthep.ttf
p1248
sg20
g21
sbag1
(g8
g3
NtRp1249
(dp1250
g11
g40
sg13
S'Source Code Pro'
p1251
sg15
I900
sg16
g12
sg17
g12
sg18
V/Users/jjangsangy/Library/Fonts/SourceCodePro-BlackIt.otf
p1252
sg20
g21
sbag1
(g8
g3
NtRp1253
(dp1254
g11
g12
sg13
S'Apple SD Gothic Neo'
p1255
sg15
I700
sg16
g12
sg17
g12
sg18
V/Library/Fonts/AppleSDGothicNeo-ExtraBold.otf
p1256
sg20
g21
sbag1
(g8
g3
NtRp1257
(dp1258
g11
g12
sg13
S'Diwan Thuluth'
p1259
sg15
I400
sg16
g12
sg17
g12
sg18
V/Library/Fonts/Diwan Thuluth.ttf
p1260
sg20
g21
sbag1
(g8
g3
NtRp1261
(dp1262
g11
g12
sg13
S'DejaVu Sans Mono for Powerline'
p1263
sg15
I700
sg16
g12
sg17
g12
sg18
V/Users/jjangsangy/Library/Fonts/DejaVu Sans Mono Bold for Powerline.ttf
p1264
sg20
g21
sbag1
(g8
g3
NtRp1265
(dp1266
g11
g12
sg13
S'DejaVu Sans'
p1267
sg15
I200
sg16
g12
sg17
g12
sg18
V/Users/jjangsangy/Library/Fonts/DejaVuSans-ExtraLight.ttf
p1268
sg20
g21
sbag1
(g8
g3
NtRp1269
(dp1270
g11
g12
sg13
S'Estrangelo Midyat'
p1271
sg15
I400
sg16
g12
sg17
g12
sg18
V/usr/X11/lib/X11/fonts/OTF/SyrCOMMidyat.otf
p1272
sg20
g21
sbag1
(g8
g3
NtRp1273
(dp1274
g11
g12
sg13
S'Apple Braille'
p1275
sg15
I400
sg16
g12
sg17
g12
sg18
V/System/Library/Fonts/Apple Braille Outline 8 Dot.ttf
p1276
sg20
g21
sbag1
(g8
g3
NtRp1277
(dp1278
g11
g12
sg13
S'Times New Roman'
p1279
sg15
I700
sg16
g12
sg17
g12
sg18
V/Library/Fonts/Times New Roman Bold.ttf
p1280
sg20
g21
sbag1
(g8
g3
NtRp1281
(dp1282
g11
g12
sg13
S'DejaVu Sans'
p1283
sg15
I400
sg16
g427
sg17
g12
sg18
V/Users/jjangsangy/Library/Fonts/DejaVuSansCondensed.ttf
p1284
sg20
g21
sbag1
(g8
g3
NtRp1285
(dp1286
g11
g12
sg13
S'Hiragino Kaku Gothic Pro'
p1287
sg15
I400
sg16
g12
sg17
g12
sg18
V/Library/Fonts/\u30d2\u30e9\u30ad\u3099\u30ce\u89d2\u30b3\u3099 Pro W3.otf
p1288
sg20
g21
sbag1
(g8
g3
NtRp1289
(dp1290
g11
g12
sg13
S'STIXVariants'
p1291
sg15
I700
sg16
g12
sg17
g12
sg18
V/Library/Fonts/STIXVarBol.otf
p1292
sg20
g21
sbag1
(g8
g3
NtRp1293
(dp1294
g11
g12
sg13
S'Fira Sans'
p1295
sg15
I400
sg16
g12
sg17
g12
sg18
V/Users/jjangsangy/Library/Fonts/FiraSans-Thin.otf
p1296
sg20
g21
sbag1
(g8
g3
NtRp1297
(dp1298
g11
g12
sg13
S'Serto Batnan'
p1299
sg15
I400
sg16
g12
sg17
g12
sg18
V/usr/X11/lib/X11/fonts/OTF/SyrCOMBatnan.otf
p1300
sg20
g21
sbag1
(g8
g3
NtRp1301
(dp1302
g11
g12
sg13
S'STIXIntegralsUp'
p1303
sg15
I700
sg16
g12
sg17
g12
sg18
V/Library/Fonts/STIXIntUpBol.otf
p1304
sg20
g21
sbag1
(g8
g3
NtRp1305
(dp1306
g11
g12
sg13
S'Wawati TC'
p1307
sg15
I400
sg16
g12
sg17
g12
sg18
V/Library/Fonts/WawaTC-Regular.otf
p1308
sg20
g21
sbag1
(g8
g3
NtRp1309
(dp1310
g11
g40
sg13
S'Trebuchet MS'
p1311
sg15
I700
sg16
g12
sg17
g12
sg18
V/Library/Fonts/Trebuchet MS Bold Italic.ttf
p1312
sg20
g21
sbag1
(g8
g3
NtRp1313
(dp1314
g11
g12
sg13
S'.Hiragino Kaku Gothic Interface'
p1315
sg15
I400
sg16
g12
sg17
g12
sg18
V/System/Library/Fonts/HiraKakuInterface-W2.otf
p1316
sg20
g21
sbag1
(g8
g3
NtRp1317
(dp1318
g11
g12
sg13
S'Source Code Pro'
p1319
sg15
I200
sg16
g12
sg17
g12
sg18
V/Users/jjangsangy/Library/Fonts/SourceCodePro-Light.otf
p1320
sg20
g21
sbag1
(g8
g3
NtRp1321
(dp1322
g11
g45
sg13
S'DejaVu Sans Mono for Powerline'
p1323
sg15
I700
sg16
g12
sg17
g12
sg18
V/Users/jjangsangy/Library/Fonts/DejaVu Sans Mono Bold Oblique for Powerline.ttf
p1324
sg20
g21
sbag1
(g8
g3
NtRp1325
(dp1326
g11
g12
sg13
S'Serto Mardin'
p1327
sg15
I400
sg16
g12
sg17
g12
sg18
V/usr/X11/lib/X11/fonts/OTF/SyrCOMMardin.otf
p1328
sg20
g21
sbag1
(g8
g3
NtRp1329
(dp1330
g11
g40
sg13
S'Fira Sans'
p1331
sg15
I200
sg16
g12
sg17
g12
sg18
V/Users/jjangsangy/Library/Fonts/FiraSans-LightItalic.otf
p1332
sg20
g21
sbag1
(g8
g3
NtRp1333
(dp1334
g11
g12
sg13
S'Goha-Tibeb Zemen'
p1335
sg15
I400
sg16
g12
sg17
g12
sg18
V/usr/X11/lib/X11/fonts/OTF/GohaTibebZemen.otf
p1336
sg20
g21
sbag1
(g8
g3
NtRp1337
(dp1338
g11
g12
sg13
S'Ubuntu Condensed'
p1339
sg15
I400
sg16
g427
sg17
g12
sg18
V/Users/jjangsangy/Library/Fonts/Ubuntu-C.ttf
p1340
sg20
g21
sbag1
(g8
g3
NtRp1341
(dp1342
g11
g12
sg13
S'Liberation Mono for Powerline'
p1343
sg15
I400
sg16
g12
sg17
g12
sg18
V/Users/jjangsangy/Library/Fonts/Literation Mono Powerline.ttf
p1344
sg20
g21
sbag1
(g8
g3
NtRp1345
(dp1346
g11
g40
sg13
S'Fira Sans'
p1347
sg15
I400
sg16
g12
sg17
g12
sg18
V/Users/jjangsangy/Library/Fonts/FiraSans-HairItalic.otf
p1348
sg20
g21
sbag1
(g8
g3
NtRp1349
(dp1350
g11
g40
sg13
S'Fira Sans'
p1351
sg15
I400
sg16
g12
sg17
g12
sg18
V/Users/jjangsangy/Library/Fonts/FiraSans-EightItalic.otf
p1352
sg20
g21
sbag1
(g8
g3
NtRp1353
(dp1354
g11
g12
sg13
S'Apple Braille'
p1355
sg15
I400
sg16
g12
sg17
g12
sg18
V/System/Library/Fonts/Apple Braille Pinpoint 8 Dot.ttf
p1356
sg20
g21
sbag1
(g8
g3
NtRp1357
(dp1358
g11
g40
sg13
S'Georgia'
p1359
sg15
I400
sg16
g12
sg17
g12
sg18
V/Library/Fonts/Georgia Italic.ttf
p1360
sg20
g21
sbag1
(g8
g3
NtRp1361
(dp1362
g11
g12
sg13
S'Apple Braille'
p1363
sg15
I400
sg16
g12
sg17
g12
sg18
V/System/Library/Fonts/Apple Braille Outline 6 Dot.ttf
p1364
sg20
g21
sbag1
(g8
g3
NtRp1365
(dp1366
g11
g12
sg13
S'Oxygen'
p1367
sg15
I200
sg16
g12
sg17
g12
sg18
V/Users/jjangsangy/Library/Fonts/Oxygen-Light.ttf
p1368
sg20
g21
sbag1
(g8
g3
NtRp1369
(dp1370
g11
g12
sg13
S'Serto Kharput'
p1371
sg15
I400
sg16
g12
sg17
g12
sg18
V/usr/X11/lib/X11/fonts/OTF/SyrCOMKharput.otf
p1372
sg20
g21
sbag1
(g8
g3
NtRp1373
(dp1374
g11
g12
sg13
S'LastResort'
p1375
sg15
I400
sg16
g12
sg17
g12
sg18
V/System/Library/Fonts/LastResort.ttf
p1376
sg20
g21
sbag1
(g8
g3
NtRp1377
(dp1378
g11
g12
sg13
S'LiHei Pro'
p1379
sg15
I400
sg16
g12
sg17
g12
sg18
V/Library/Fonts/\u5137\u9ed1 Pro.ttf
p1380
sg20
g21
sbag1
(g8
g3
NtRp1381
(dp1382
g11
g12
sg13
S'Apple SD Gothic Neo'
p1383
sg15
I400
sg16
g12
sg17
g12
sg18
V/Library/Fonts/AppleSDGothicNeo-Thin.otf
p1384
sg20
g21
sbag1
(g8
g3
NtRp1385
(dp1386
g11
g12
sg13
S'STIXGeneral'
p1387
sg15
I700
sg16
g12
sg17
g12
sg18
V/Library/Fonts/STIXGeneralBol.otf
p1388
sg20
g21
sbag1
(g8
g3
NtRp1389
(dp1390
g11
g40
sg13
S'Anonymous Pro'
p1391
sg15
I400
sg16
g12
sg17
g12
sg18
V/Users/jjangsangy/Library/Fonts/Anonymous Pro I.ttf
p1392
sg20
g21
sbag1
(g8
g3
NtRp1393
(dp1394
g11
g12
sg13
S'STIXIntegralsD'
p1395
sg15
I400
sg16
g12
sg17
g12
sg18
V/Library/Fonts/STIXIntDReg.otf
p1396
sg20
g21
sbag1
(g8
g3
NtRp1397
(dp1398
g11
g12
sg13
S'Source Code Pro'
p1399
sg15
I200
sg16
g12
sg17
g12
sg18
V/Users/jjangsangy/Library/Fonts/SourceCodePro-ExtraLight.otf
p1400
sg20
g21
sbag1
(g8
g3
NtRp1401
(dp1402
g11
g40
sg13
S'STIXGeneral'
p1403
sg15
I700
sg16
g12
sg17
g12
sg18
V/Library/Fonts/STIXGeneralBolIta.otf
p1404
sg20
g21
sbag1
(g8
g3
NtRp1405
(dp1406
g11
g12
sg13
S'Trebuchet MS'
p1407
sg15
I400
sg16
g12
sg17
g12
sg18
V/Library/Fonts/Trebuchet MS.ttf
p1408
sg20
g21
sbag1
(g8
g3
NtRp1409
(dp1410
g11
g12
sg13
S'Courier New'
p1411
sg15
I700
sg16
g12
sg17
g12
sg18
V/Library/Fonts/Courier New Bold.ttf
p1412
sg20
g21
sbag1
(g8
g3
NtRp1413
(dp1414
g11
g12
sg13
S'Source Code Pro'
p1415
sg15
I900
sg16
g12
sg17
g12
sg18
V/Users/jjangsangy/Library/Fonts/SourceCodePro-Black.otf
p1416
sg20
g21
sbag1
(g8
g3
NtRp1417
(dp1418
g11
g12
sg13
S'Herculanum'
p1419
sg15
I400
sg16
g12
sg17
g12
sg18
V/Library/Fonts/Herculanum.ttf
p1420
sg20
g21
sbag1
(g8
g3
NtRp1421
(dp1422
g11
g40
sg13
S'Anonymous Pro for Powerline'
p1423
sg15
I700
sg16
g12
sg17
g12
sg18
V/Users/jjangsangy/Library/Fonts/Anonymice Powerline Bold Italic.ttf
p1424
sg20
g21
sbag1
(g8
g3
NtRp1425
(dp1426
g11
g12
sg13
S'Estrangelo TurAbdin'
p1427
sg15
I400
sg16
g12
sg17
g12
sg18
V/usr/X11/lib/X11/fonts/OTF/SyrCOMTurAbdin.otf
p1428
sg20
g21
sbag1
(g8
g3
NtRp1429
(dp1430
g11
g12
sg13
S'Wingdings 2'
p1431
sg15
I400
sg16
g12
sg17
g12
sg18
V/Library/Fonts/Wingdings 2.ttf
p1432
sg20
g21
sbag1
(g8
g3
NtRp1433
(dp1434
g11
g12
sg13
S'Tahoma'
p1435
sg15
I400
sg16
g12
sg17
g12
sg18
V/Library/Fonts/Tahoma.ttf
p1436
sg20
g21
sbag1
(g8
g3
NtRp1437
(dp1438
g11
g40
sg13
S'Brush Script MT'
p1439
sg15
I400
sg16
g12
sg17
g12
sg18
V/Library/Fonts/Brush Script.ttf
p1440
sg20
g21
sbag1
(g8
g3
NtRp1441
(dp1442
g11
g40
sg13
S'Ubuntu Mono'
p1443
sg15
I400
sg16
g12
sg17
g12
sg18
V/Users/jjangsangy/Library/Fonts/UbuntuMono-RI.ttf
p1444
sg20
g21
sbag1
(g8
g3
NtRp1445
(dp1446
g11
g12
sg13
S'.Hiragino Kaku Gothic Interface'
p1447
sg15
I400
sg16
g12
sg17
g12
sg18
V/System/Library/Fonts/HiraKakuInterface-W1.otf
p1448
sg20
g21
sbag1
(g8
g3
NtRp1449
(dp1450
g11
g12
sg13
S'Khmer Sangam MN'
p1451
sg15
I400
sg16
g12
sg17
g12
sg18
V/Library/Fonts/Khmer Sangam MN.ttf
p1452
sg20
g21
sbag1
(g8
g3
NtRp1453
(dp1454
g11
g40
sg13
S'Fira Sans'
p1455
sg15
I400
sg16
g12
sg17
g12
sg18
V/Users/jjangsangy/Library/Fonts/FiraSans-TwoItalic.otf
p1456
sg20
g21
sbag1
(g8
g3
NtRp1457
(dp1458
g11
g12
sg13
S'DejaVu Sans Mono'
p1459
sg15
I700
sg16
g12
sg17
g12
sg18
V/Users/jjangsangy/Library/Fonts/DejaVuSansMono-Bold.ttf
p1460
sg20
g21
sbag1
(g8
g3
NtRp1461
(dp1462
g11
g40
sg13
S'Liberation Mono for Powerline'
p1463
sg15
I400
sg16
g12
sg17
g12
sg18
V/Users/jjangsangy/Library/Fonts/Literation Mono Powerline Italic.ttf
p1464
sg20
g21
sbag1
(g8
g3
NtRp1465
(dp1466
g11
g12
sg13
S'Hiragino Kaku Gothic ProN'
p1467
sg15
I400
sg16
g12
sg17
g12
sg18
V/System/Library/Fonts/\u30d2\u30e9\u30ad\u3099\u30ce\u89d2\u30b3\u3099 ProN W3.otf
p1468
sg20
g21
sbag1
(g8
g3
NtRp1469
(dp1470
g11
g12
sg13
S'Inconsolata for Powerline'
p1471
sg15
I400
sg16
g12
sg17
g12
sg18
V/Users/jjangsangy/Library/Fonts/Inconsolata for Powerline.otf
p1472
sg20
g21
sbag1
(g8
g3
NtRp1473
(dp1474
g11
g12
sg13
S'Fira Sans'
p1475
sg15
I700
sg16
g12
sg17
g12
sg18
V/Users/jjangsangy/Library/Fonts/FiraSans-Bold.otf
p1476
sg20
g21
sbag1
(g8
g3
NtRp1477
(dp1478
g11
g12
sg13
S'Trattatello'
p1479
sg15
I400
sg16
g12
sg17
g12
sg18
V/Library/Fonts/Trattatello.ttf
p1480
sg20
g21
sbag1
(g8
g3
NtRp1481
(dp1482
g11
g40
sg13
S'Droid Serif'
p1483
sg15
I700
sg16
g12
sg17
g12
sg18
V/Users/jjangsangy/Library/Fonts/DroidSerif-BoldItalic.ttf
p1484
sg20
g21
sbag1
(g8
g3
NtRp1485
(dp1486
g11
g12
sg13
S'Source Code Pro for Powerline'
p1487
sg15
I400
sg16
g12
sg17
g12
sg18
V/Users/jjangsangy/Library/Fonts/Sauce Code Powerline Regular.otf
p1488
sg20
g21
sbag1
(g8
g3
NtRp1489
(dp1490
g11
g12
sg13
S'Gujarati MT'
p1491
sg15
I400
sg16
g12
sg17
g12
sg18
V/Library/Fonts/GujaratiMT.ttf
p1492
sg20
g21
sbag1
(g8
g3
NtRp1493
(dp1494
g11
g12
sg13
S'Inconsolata-dz'
p1495
sg15
I400
sg16
g12
sg17
g12
sg18
V/Users/jjangsangy/Library/Fonts/Inconsolata-dz.otf
p1496
sg20
g21
sbag1
(g8
g3
NtRp1497
(dp1498
g11
g12
sg13
S'Osaka'
p1499
sg15
I400
sg16
g12
sg17
g12
sg18
V/Library/Fonts/OsakaMono.ttf
p1500
sg20
g21
sbag1
(g8
g3
NtRp1501
(dp1502
g11
g12
sg13
S'GungSeo'
p1503
sg15
I400
sg16
g12
sg17
g12
sg18
V/Library/Fonts/Gungseouche.ttf
p1504
sg20
g21
sbag1
(g8
g3
NtRp1505
(dp1506
g11
g12
sg13
S'STIXSizeTwoSym'
p1507
sg15
I700
sg16
g12
sg17
g12
sg18
V/Library/Fonts/STIXSizTwoSymBol.otf
p1508
sg20
g21
sbag1
(g8
g3
NtRp1509
(dp1510
g11
g12
sg13
S'Wingdings 3'
p1511
sg15
I400
sg16
g12
sg17
g12
sg18
V/Library/Fonts/Wingdings 3.ttf
p1512
sg20
g21
sbag1
(g8
g3
NtRp1513
(dp1514
g11
g12
sg13
S'Sathu'
p1515
sg15
I400
sg16
g12
sg17
g12
sg18
V/Library/Fonts/Sathu.ttf
p1516
sg20
g21
sbag1
(g8
g3
NtRp1517
(dp1518
g11
g40
sg13
S'Source Code Pro'
p1519
sg15
I700
sg16
g12
sg17
g12
sg18
V/Users/jjangsangy/Library/Fonts/SourceCodePro-SemiboldIt.otf
p1520
sg20
g21
sbag1
(g8
g3
NtRp1521
(dp1522
g11
g12
sg13
S'Apple SD Gothic Neo'
p1523
sg15
I500
sg16
g12
sg17
g12
sg18
V/Library/Fonts/AppleSDGothicNeo-Medium.otf
p1524
sg20
g21
sbasS'defaultFamily'
p1525
(dp1526
Vafm
p1527
VHelvetica
p1528
sVttf
p1529
VBitstream Vera Sans
p1530
ssS'ttffiles'
p1531
(lp1532
g19
ag25
ag29
ag33
ag37
ag42
ag47
ag51
ag55
ag59
ag63
ag67
ag71
ag75
ag79
ag83
ag87
ag91
ag95
ag99
ag103
ag107
ag111
ag115
ag119
ag123
ag127
ag131
ag135
ag139
ag143
ag147
ag151
ag155
ag159
ag163
ag167
ag171
ag175
ag179
ag183
ag187
ag191
ag195
aV/Library/Fonts/NISC18030.ttf
p1533
ag199
ag203
ag207
ag211
aV/usr/X11R6/lib/X11/fonts/TTF/Vera.ttf
p1534
ag215
ag219
aV/usr/X11R6/lib/X11/fonts/TTF/VeraMono.ttf
p1535
ag223
ag227
ag231
ag235
ag239
ag243
ag247
ag251
ag255
ag259
ag263
aV/usr/X11/lib/X11/fonts/TTF/VeraMono.ttf
p1536
ag267
ag271
ag275
ag279
ag283
ag287
aV/System/Library/Fonts/Apple Color Emoji.ttf
p1537
ag291
ag295
ag299
ag303
ag307
ag311
ag315
ag319
ag323
ag327
ag331
ag335
ag339
ag343
ag347
ag351
ag355
ag359
ag363
ag367
ag371
ag375
ag379
ag383
ag387
ag391
ag395
aV/usr/X11/lib/X11/fonts/TTF/VeraSeBd.ttf
p1538
ag399
ag403
aV/usr/X11R6/lib/X11/fonts/TTF/VeraSeBd.ttf
p1539
ag407
ag411
ag415
aV/usr/X11/lib/X11/fonts/TTF/luxirr.ttf
p1540
ag419
ag423
ag428
aV/usr/X11R6/lib/X11/fonts/TTF/VeraBd.ttf
p1541
ag432
ag436
ag440
ag444
ag448
ag452
ag456
ag460
ag464
ag468
ag472
ag476
ag480
ag484
ag488
ag492
ag496
ag500
ag504
ag508
aV/usr/X11R6/lib/X11/fonts/TTF/VeraMoBd.ttf
p1542
ag512
ag516
ag520
ag524
ag528
ag532
ag536
ag540
ag544
ag548
ag552
ag556
aV/usr/X11/lib/X11/fonts/TTF/luximb.ttf
p1543
ag560
ag564
ag568
ag572
ag576
ag580
ag584
ag588
ag592
ag596
ag600
ag604
ag608
ag612
ag616
ag620
aV/usr/X11/lib/X11/fonts/TTF/VeraIt.ttf
p1544
ag624
ag628
ag632
ag636
ag640
ag644
ag648
ag652
ag656
ag660
ag664
ag668
ag672
ag676
ag680
ag684
aV/usr/X11R6/lib/X11/fonts/TTF/luxirbi.ttf
p1545
ag688
ag692
ag696
ag700
ag704
ag708
ag712
ag716
ag720
ag724
ag728
ag732
ag736
ag740
ag744
ag748
ag752
ag756
ag760
ag764
ag768
ag772
ag776
ag780
ag784
ag788
ag792
ag796
ag800
ag804
aV/usr/X11R6/lib/X11/fonts/TTF/luxisri.ttf
p1546
ag808
ag812
ag816
ag820
ag824
ag828
ag832
ag836
ag840
ag844
ag848
ag852
aV/usr/X11R6/lib/X11/fonts/TTF/VeraBI.ttf
p1547
ag856
ag860
ag864
ag868
ag872
ag876
ag880
ag884
ag888
ag892
ag896
ag900
ag904
ag908
ag912
ag916
aV/usr/X11R6/lib/X11/fonts/TTF/VeraMoIt.ttf
p1548
ag920
ag924
ag928
ag932
ag936
ag940
ag944
ag948
aV/usr/X11/lib/X11/fonts/TTF/luxirb.ttf
p1549
ag952
ag956
ag960
aV/usr/X11/lib/X11/fonts/TTF/VeraSe.ttf
p1550
ag964
ag968
ag972
ag976
ag980
ag984
ag988
ag992
ag996
ag1000
ag1004
aV/usr/X11/lib/X11/fonts/TTF/VeraMoBd.ttf
p1551
aV/usr/X11/lib/X11/fonts/TTF/VeraMoBI.ttf
p1552
ag1008
aV/usr/X11/lib/X11/fonts/TTF/VeraBd.ttf
p1553
ag1012
ag1016
ag1020
ag1024
aV/usr/X11R6/lib/X11/fonts/TTF/VeraIt.ttf
p1554
ag1028
ag1032
ag1036
aV/usr/X11/lib/X11/fonts/TTF/luxisbi.ttf
p1555
ag1040
ag1044
ag1048
ag1052
ag1056
ag1060
ag1064
aV/usr/X11R6/lib/X11/fonts/TTF/luximbi.ttf
p1556
ag1068
ag1072
ag1076
ag1080
aV/usr/X11R6/lib/X11/fonts/TTF/luxisb.ttf
p1557
ag1084
ag1088
ag1092
ag1096
aV/usr/X11/lib/X11/fonts/TTF/Vera.ttf
p1558
ag1100
ag1104
aV/usr/X11R6/lib/X11/fonts/TTF/luxisr.ttf
p1559
ag1108
ag1112
ag1116
ag1120
ag1124
ag1128
ag1132
ag1136
ag1140
ag1144
ag1148
ag1152
aV/usr/X11/lib/X11/fonts/TTF/luximri.ttf
p1560
ag1156
ag1160
ag1164
ag1168
ag1172
aV/usr/X11R6/lib/X11/fonts/TTF/VeraMoBI.ttf
p1561
ag1176
ag1180
ag1184
ag1188
ag1192
ag1196
ag1200
ag1204
ag1208
ag1212
ag1216
ag1220
ag1224
ag1228
ag1232
ag1236
ag1240
ag1244
ag1248
ag1252
ag1256
aV/usr/X11/lib/X11/fonts/TTF/VeraMoIt.ttf
p1562
ag1260
ag1264
ag1268
aV/usr/X11R6/lib/X11/fonts/TTF/luximr.ttf
p1563
ag1272
ag1276
aV/usr/X11R6/lib/X11/fonts/TTF/VeraSe.ttf
p1564
ag1280
aV/usr/X11/lib/X11/fonts/TTF/GohaTibebZemen.ttf
p1565
ag1284
ag1288
ag1292
ag1296
ag1300
ag1304
ag1308
ag1312
ag1316
ag1320
ag1324
ag1328
ag1332
ag1336
ag1340
ag1344
ag1348
ag1352
ag1356
ag1360
ag1364
ag1368
ag1372
aV/usr/X11/lib/X11/fonts/TTF/luxirri.ttf
p1566
ag1376
ag1380
ag1384
ag1388
ag1392
ag1396
ag1400
ag1404
ag1408
aV/usr/X11/lib/X11/fonts/TTF/VeraBI.ttf
p1567
ag1412
ag1416
ag1420
ag1424
ag1428
ag1432
ag1436
ag1440
ag1444
ag1448
ag1452
ag1456
ag1460
ag1464
ag1468
ag1472
ag1476
ag1480
ag1484
ag1488
ag1492
ag1496
ag1500
ag1504
ag1508
ag1512
ag1516
ag1520
ag1524
asS'_FontManager__default_weight'
p1568
Vnormal
p1569
sS'_version'
p1570
I101
sS'default_size'
p1571
NsS'defaultFont'
p1572
(dp1573
g1527
V/usr/local/lib/python2.7/site-packages/matplotlib/mpl-data/fonts/pdfcorefonts/Helvetica-Bold.afm
p1574
sg1529
g111
ssS'afmfiles'
p1575
(lp1576
g1574
aV/usr/local/lib/python2.7/site-packages/matplotlib/mpl-data/fonts/pdfcorefonts/Courier-Oblique.afm
p1577
aV/usr/local/lib/python2.7/site-packages/matplotlib/mpl-data/fonts/afm/phvb8a.afm
p1578
aV/usr/local/lib/python2.7/site-packages/matplotlib/mpl-data/fonts/pdfcorefonts/Times-Bold.afm
p1579
aV/usr/local/lib/python2.7/site-packages/matplotlib/mpl-data/fonts/afm/pbkli8a.afm
p1580
aV/usr/local/lib/python2.7/site-packages/matplotlib/mpl-data/fonts/pdfcorefonts/Courier-BoldOblique.afm
p1581
aV/usr/local/lib/python2.7/site-packages/matplotlib/mpl-data/fonts/afm/phvr8an.afm
p1582
aV/usr/local/lib/python2.7/site-packages/matplotlib/mpl-data/fonts/pdfcorefonts/Courier.afm
p1583
aV/usr/local/lib/python2.7/site-packages/matplotlib/mpl-data/fonts/afm/ptmri8a.afm
p1584
aV/usr/local/lib/python2.7/site-packages/matplotlib/mpl-data/fonts/afm/cmex10.afm
p1585
aV/usr/local/lib/python2.7/site-packages/matplotlib/mpl-data/fonts/afm/pzdr.afm
p1586
aV/usr/local/lib/python2.7/site-packages/matplotlib/mpl-data/fonts/afm/phvr8a.afm
p1587
aV/usr/local/lib/python2.7/site-packages/matplotlib/mpl-data/fonts/afm/pncbi8a.afm
p1588
aV/usr/local/lib/python2.7/site-packages/matplotlib/mpl-data/fonts/afm/phvbo8an.afm
p1589
aV/usr/local/lib/python2.7/site-packages/matplotlib/mpl-data/fonts/afm/pagd8a.afm
p1590
aV/usr/local/lib/python2.7/site-packages/matplotlib/mpl-data/fonts/afm/pplbi8a.afm
p1591
aV/usr/local/lib/python2.7/site-packages/matplotlib/mpl-data/fonts/afm/cmtt10.afm
p1592
aV/usr/local/lib/python2.7/site-packages/matplotlib/mpl-data/fonts/afm/putri8a.afm
p1593
aV/usr/local/lib/python2.7/site-packages/matplotlib/mpl-data/fonts/afm/pplr8a.afm
p1594
aV/usr/local/lib/python2.7/site-packages/matplotlib/mpl-data/fonts/afm/cmsy10.afm
p1595
aV/usr/local/lib/python2.7/site-packages/matplotlib/mpl-data/fonts/afm/putb8a.afm
p1596
aV/usr/local/lib/python2.7/site-packages/matplotlib/mpl-data/fonts/pdfcorefonts/Helvetica.afm
p1597
aV/usr/local/lib/python2.7/site-packages/matplotlib/mpl-data/fonts/afm/pplb8a.afm
p1598
aV/usr/local/lib/python2.7/site-packages/matplotlib/mpl-data/fonts/afm/phvb8an.afm
p1599
aV/usr/local/lib/python2.7/site-packages/matplotlib/mpl-data/fonts/afm/putr8a.afm
p1600
aV/usr/local/lib/python2.7/site-packages/matplotlib/mpl-data/fonts/afm/phvro8a.afm
p1601
aV/usr/local/lib/python2.7/site-packages/matplotlib/mpl-data/fonts/pdfcorefonts/Helvetica-BoldOblique.afm
p1602
aV/usr/local/lib/python2.7/site-packages/matplotlib/mpl-data/fonts/pdfcorefonts/Symbol.afm
p1603
aV/usr/local/lib/python2.7/site-packages/matplotlib/mpl-data/fonts/afm/pplri8a.afm
p1604
aV/usr/local/lib/python2.7/site-packages/matplotlib/mpl-data/fonts/pdfcorefonts/Times-Italic.afm
p1605
aV/usr/local/lib/python2.7/site-packages/matplotlib/mpl-data/fonts/afm/ptmb8a.afm
p1606
aV/usr/local/lib/python2.7/site-packages/matplotlib/mpl-data/fonts/afm/ptmr8a.afm
p1607
aV/usr/local/lib/python2.7/site-packages/matplotlib/mpl-data/fonts/afm/phvl8a.afm
p1608
aV/usr/local/lib/python2.7/site-packages/matplotlib/mpl-data/fonts/afm/putbi8a.afm
p1609
aV/usr/local/lib/python2.7/site-packages/matplotlib/mpl-data/fonts/afm/pncri8a.afm
p1610
aV/usr/local/lib/python2.7/site-packages/matplotlib/mpl-data/fonts/afm/cmr10.afm
p1611
aV/usr/local/lib/python2.7/site-packages/matplotlib/mpl-data/fonts/afm/pbkl8a.afm
p1612
aV/usr/local/lib/python2.7/site-packages/matplotlib/mpl-data/fonts/pdfcorefonts/Helvetica-Oblique.afm
p1613
aV/usr/local/lib/python2.7/site-packages/matplotlib/mpl-data/fonts/pdfcorefonts/Times-BoldItalic.afm
p1614
aV/usr/local/lib/python2.7/site-packages/matplotlib/mpl-data/fonts/afm/phvlo8a.afm
p1615
aV/usr/local/lib/python2.7/site-packages/matplotlib/mpl-data/fonts/afm/pcrbo8a.afm
p1616
aV/usr/local/lib/python2.7/site-packages/matplotlib/mpl-data/fonts/pdfcorefonts/Courier-Bold.afm
p1617
aV/usr/local/lib/python2.7/site-packages/matplotlib/mpl-data/fonts/afm/phvro8an.afm
p1618
aV/usr/local/lib/python2.7/site-packages/matplotlib/mpl-data/fonts/afm/ptmbi8a.afm
p1619
aV/usr/local/lib/python2.7/site-packages/matplotlib/mpl-data/fonts/afm/pcrb8a.afm
p1620
aV/usr/local/lib/python2.7/site-packages/matplotlib/mpl-data/fonts/afm/phvbo8a.afm
p1621
aV/usr/local/lib/python2.7/site-packages/matplotlib/mpl-data/fonts/afm/pncr8a.afm
p1622
aV/usr/local/lib/python2.7/site-packages/matplotlib/mpl-data/fonts/afm/psyr.afm
p1623
aV/usr/local/lib/python2.7/site-packages/matplotlib/mpl-data/fonts/afm/pcrro8a.afm
p1624
aV/usr/local/lib/python2.7/site-packages/matplotlib/mpl-data/fonts/pdfcorefonts/ZapfDingbats.afm
p1625
aV/usr/local/lib/python2.7/site-packages/matplotlib/mpl-data/fonts/afm/cmmi10.afm
p1626
aV/usr/local/lib/python2.7/site-packages/matplotlib/mpl-data/fonts/afm/pcrr8a.afm
p1627
aV/usr/local/lib/python2.7/site-packages/matplotlib/mpl-data/fonts/afm/pncb8a.afm
p1628
aV/usr/local/lib/python2.7/site-packages/matplotlib/mpl-data/fonts/afm/pbkd8a.afm
p1629
aV/usr/local/lib/python2.7/site-packages/matplotlib/mpl-data/fonts/afm/pzcmi8a.afm
p1630
aV/usr/local/lib/python2.7/site-packages/matplotlib/mpl-data/fonts/afm/pagko8a.afm
p1631
aV/usr/local/lib/python2.7/site-packages/matplotlib/mpl-data/fonts/pdfcorefonts/Times-Roman.afm
p1632
aV/usr/local/lib/python2.7/site-packages/matplotlib/mpl-data/fonts/afm/pagk8a.afm
p1633
aV/usr/local/lib/python2.7/site-packages/matplotlib/mpl-data/fonts/afm/pagdo8a.afm
p1634
aV/usr/local/lib/python2.7/site-packages/matplotlib/mpl-data/fonts/afm/pbkdi8a.afm
p1635
aV/usr/X11/lib/X11/fonts/Type1/UTB_____.afm
p1636
aV/usr/X11/lib/X11/fonts/Type1/c0583bt_.afm
p1637
aV/usr/X11/lib/X11/fonts/Type1/l049036t.afm
p1638
aV/usr/X11/lib/X11/fonts/Type1/c0649bt_.afm
p1639
aV/usr/X11/lib/X11/fonts/Type1/UTRG____.afm
p1640
aV/usr/X11/lib/X11/fonts/Type1/c0582bt_.afm
p1641
aV/usr/X11/lib/X11/fonts/Type1/c0648bt_.afm
p1642
aV/usr/X11/lib/X11/fonts/Type1/c0633bt_.afm
p1643
aV/usr/X11/lib/X11/fonts/Type1/l048013t.afm
p1644
aV/usr/X11/lib/X11/fonts/Type1/courb.afm
p1645
aV/usr/X11/lib/X11/fonts/Type1/c0419bt_.afm
p1646
aV/usr/X11/lib/X11/fonts/Type1/UTI_____.afm
p1647
aV/usr/X11/lib/X11/fonts/Type1/l049016t.afm
p1648
aV/usr/X11/lib/X11/fonts/Type1/l048033t.afm
p1649
aV/usr/X11/lib/X11/fonts/Type1/l048016t.afm
p1650
aV/usr/X11/lib/X11/fonts/Type1/l048036t.afm
p1651
aV/usr/X11/lib/X11/fonts/Type1/courbi.afm
p1652
aV/usr/X11/lib/X11/fonts/Type1/c0632bt_.afm
p1653
aV/usr/X11/lib/X11/fonts/Type1/l049013t.afm
p1654
aV/usr/X11/lib/X11/fonts/Type1/c0611bt_.afm
p1655
aV/usr/X11/lib/X11/fonts/Type1/l047036t.afm
p1656
aV/usr/X11/lib/X11/fonts/Type1/l047016t.afm
p1657
aV/usr/X11/lib/X11/fonts/Type1/l047033t.afm
p1658
aV/usr/X11/lib/X11/fonts/Type1/l047013t.afm
p1659
aV/usr/X11/lib/X11/fonts/Type1/l049033t.afm
p1660
aV/usr/X11/lib/X11/fonts/Type1/UTBI____.afm
p1661
aV/usr/X11/lib/X11/fonts/Type1/cour.afm
p1662
aV/usr/X11/lib/X11/fonts/Type1/couri.afm
p1663
asS'afmlist'
p1664
(lp1665
g1
(g8
g3
NtRp1666
(dp1667
g11
Vnormal
p1668
sg13
S'Helvetica'
p1669
sg15
I700
sg16
g1668
sg17
g1668
sg18
g1574
sg20
Vscalable
p1670
sbag1
(g8
g3
NtRp1671
(dp1672
g11
Vitalic
p1673
sg13
S'Courier'
p1674
sg15
I500
sg16
g1668
sg17
g1668
sg18
g1577
sg20
g1670
sbag1
(g8
g3
NtRp1675
(dp1676
g11
g1668
sg13
S'Helvetica'
p1677
sg15
I700
sg16
g1668
sg17
g1668
sg18
g1578
sg20
g1670
sbag1
(g8
g3
NtRp1678
(dp1679
g11
g1668
sg13
S'Times'
p1680
sg15
I700
sg16
g1668
sg17
g1668
sg18
g1579
sg20
g1670
sbag1
(g8
g3
NtRp1681
(dp1682
g11
g1673
sg13
S'ITC Bookman'
p1683
sg15
I200
sg16
g1668
sg17
g1668
sg18
g1580
sg20
g1670
sbag1
(g8
g3
NtRp1684
(dp1685
g11
g1673
sg13
S'Courier'
p1686
sg15
I700
sg16
g1668
sg17
g1668
sg18
g1581
sg20
g1670
sbag1
(g8
g3
NtRp1687
(dp1688
g11
g1668
sg13
S'Helvetica'
p1689
sg15
I500
sg16
Vcondensed
p1690
sg17
g1668
sg18
g1582
sg20
g1670
sbag1
(g8
g3
NtRp1691
(dp1692
g11
g1668
sg13
S'Courier'
p1693
sg15
I500
sg16
g1668
sg17
g1668
sg18
g1583
sg20
g1670
sbag1
(g8
g3
NtRp1694
(dp1695
g11
g1673
sg13
S'Times'
p1696
sg15
I500
sg16
g1668
sg17
g1668
sg18
g1584
sg20
g1670
sbag1
(g8
g3
NtRp1697
(dp1698
g11
g1668
sg13
S'Computer Modern'
p1699
sg15
I500
sg16
g1668
sg17
g1668
sg18
g1585
sg20
g1670
sbag1
(g8
g3
NtRp1700
(dp1701
g11
g1668
sg13
S'ITC Zapf Dingbats'
p1702
sg15
I500
sg16
g1668
sg17
g1668
sg18
g1586
sg20
g1670
sbag1
(g8
g3
NtRp1703
(dp1704
g11
g1668
sg13
S'Helvetica'
p1705
sg15
I500
sg16
g1668
sg17
g1668
sg18
g1587
sg20
g1670
sbag1
(g8
g3
NtRp1706
(dp1707
g11
g1673
sg13
S'New Century Schoolbook'
p1708
sg15
I700
sg16
g1668
sg17
g1668
sg18
g1588
sg20
g1670
sbag1
(g8
g3
NtRp1709
(dp1710
g11
g1673
sg13
S'Helvetica'
p1711
sg15
I700
sg16
g1690
sg17
g1668
sg18
g1589
sg20
g1670
sbag1
(g8
g3
NtRp1712
(dp1713
g11
g1668
sg13
S'ITC Avant Garde Gothic'
p1714
sg15
I600
sg16
g1668
sg17
g1668
sg18
g1590
sg20
g1670
sbag1
(g8
g3
NtRp1715
(dp1716
g11
g1673
sg13
S'Palatino'
p1717
sg15
I700
sg16
g1668
sg17
g1668
sg18
g1591
sg20
g1670
sbag1
(g8
g3
NtRp1718
(dp1719
g11
g1668
sg13
S'Computer Modern'
p1720
sg15
I500
sg16
g1668
sg17
g1668
sg18
g1592
sg20
g1670
sbag1
(g8
g3
NtRp1721
(dp1722
g11
g1673
sg13
S'Utopia'
p1723
sg15
I400
sg16
g1668
sg17
g1668
sg18
g1593
sg20
g1670
sbag1
(g8
g3
NtRp1724
(dp1725
g11
g1668
sg13
S'Palatino'
p1726
sg15
I500
sg16
g1668
sg17
g1668
sg18
g1594
sg20
g1670
sbag1
(g8
g3
NtRp1727
(dp1728
g11
g1673
sg13
S'Computer Modern'
p1729
sg15
I500
sg16
g1668
sg17
g1668
sg18
g1595
sg20
g1670
sbag1
(g8
g3
NtRp1730
(dp1731
g11
g1668
sg13
S'Utopia'
p1732
sg15
I700
sg16
g1668
sg17
g1668
sg18
g1596
sg20
g1670
sbag1
(g8
g3
NtRp1733
(dp1734
g11
g1668
sg13
S'Helvetica'
p1735
sg15
I500
sg16
g1668
sg17
g1668
sg18
g1597
sg20
g1670
sbag1
(g8
g3
NtRp1736
(dp1737
g11
g1668
sg13
S'Palatino'
p1738
sg15
I700
sg16
g1668
sg17
g1668
sg18
g1598
sg20
g1670
sbag1
(g8
g3
NtRp1739
(dp1740
g11
g1668
sg13
S'Helvetica'
p1741
sg15
I700
sg16
g1690
sg17
g1668
sg18
g1599
sg20
g1670
sbag1
(g8
g3
NtRp1742
(dp1743
g11
g1668
sg13
S'Utopia'
p1744
sg15
I400
sg16
g1668
sg17
g1668
sg18
g1600
sg20
g1670
sbag1
(g8
g3
NtRp1745
(dp1746
g11
g1673
sg13
S'Helvetica'
p1747
sg15
I500
sg16
g1668
sg17
g1668
sg18
g1601
sg20
g1670
sbag1
(g8
g3
NtRp1748
(dp1749
g11
g1673
sg13
S'Helvetica'
p1750
sg15
I700
sg16
g1668
sg17
g1668
sg18
g1602
sg20
g1670
sbag1
(g8
g3
NtRp1751
(dp1752
g11
g1668
sg13
S'Symbol'
p1753
sg15
I500
sg16
g1668
sg17
g1668
sg18
g1603
sg20
g1670
sbag1
(g8
g3
NtRp1754
(dp1755
g11
g1673
sg13
S'Palatino'
p1756
sg15
I500
sg16
g1668
sg17
g1668
sg18
g1604
sg20
g1670
sbag1
(g8
g3
NtRp1757
(dp1758
g11
g1673
sg13
S'Times'
p1759
sg15
I500
sg16
g1668
sg17
g1668
sg18
g1605
sg20
g1670
sbag1
(g8
g3
NtRp1760
(dp1761
g11
g1668
sg13
S'Times'
p1762
sg15
I700
sg16
g1668
sg17
g1668
sg18
g1606
sg20
g1670
sbag1
(g8
g3
NtRp1763
(dp1764
g11
g1668
sg13
S'Times'
p1765
sg15
I500
sg16
g1668
sg17
g1668
sg18
g1607
sg20
g1670
sbag1
(g8
g3
NtRp1766
(dp1767
g11
g1668
sg13
S'Helvetica'
p1768
sg15
I200
sg16
g1668
sg17
g1668
sg18
g1608
sg20
g1670
sbag1
(g8
g3
NtRp1769
(dp1770
g11
g1673
sg13
S'Utopia'
p1771
sg15
I700
sg16
g1668
sg17
g1668
sg18
g1609
sg20
g1670
sbag1
(g8
g3
NtRp1772
(dp1773
g11
g1673
sg13
S'New Century Schoolbook'
p1774
sg15
I500
sg16
g1668
sg17
g1668
sg18
g1610
sg20
g1670
sbag1
(g8
g3
NtRp1775
(dp1776
g11
g1668
sg13
S'Computer Modern'
p1777
sg15
I500
sg16
g1668
sg17
g1668
sg18
g1611
sg20
g1670
sbag1
(g8
g3
NtRp1778
(dp1779
g11
g1668
sg13
S'ITC Bookman'
p1780
sg15
I200
sg16
g1668
sg17
g1668
sg18
g1612
sg20
g1670
sbag1
(g8
g3
NtRp1781
(dp1782
g11
g1673
sg13
S'Helvetica'
p1783
sg15
I500
sg16
g1668
sg17
g1668
sg18
g1613
sg20
g1670
sbag1
(g8
g3
NtRp1784
(dp1785
g11
g1673
sg13
S'Times'
p1786
sg15
I700
sg16
g1668
sg17
g1668
sg18
g1614
sg20
g1670
sbag1
(g8
g3
NtRp1787
(dp1788
g11
g1673
sg13
S'Helvetica'
p1789
sg15
I200
sg16
g1668
sg17
g1668
sg18
g1615
sg20
g1670
sbag1
(g8
g3
NtRp1790
(dp1791
g11
g1673
sg13
S'Courier'
p1792
sg15
I700
sg16
g1668
sg17
g1668
sg18
g1616
sg20
g1670
sbag1
(g8
g3
NtRp1793
(dp1794
g11
g1668
sg13
S'Courier'
p1795
sg15
I700
sg16
g1668
sg17
g1668
sg18
g1617
sg20
g1670
sbag1
(g8
g3
NtRp1796
(dp1797
g11
g1673
sg13
S'Helvetica'
p1798
sg15
I500
sg16
g1690
sg17
g1668
sg18
g1618
sg20
g1670
sbag1
(g8
g3
NtRp1799
(dp1800
g11
g1673
sg13
S'Times'
p1801
sg15
I700
sg16
g1668
sg17
g1668
sg18
g1619
sg20
g1670
sbag1
(g8
g3
NtRp1802
(dp1803
g11
g1668
sg13
S'Courier'
p1804
sg15
I700
sg16
g1668
sg17
g1668
sg18
g1620
sg20
g1670
sbag1
(g8
g3
NtRp1805
(dp1806
g11
g1673
sg13
S'Helvetica'
p1807
sg15
I700
sg16
g1668
sg17
g1668
sg18
g1621
sg20
g1670
sbag1
(g8
g3
NtRp1808
(dp1809
g11
g1668
sg13
S'New Century Schoolbook'
p1810
sg15
I500
sg16
g1668
sg17
g1668
sg18
g1622
sg20
g1670
sbag1
(g8
g3
NtRp1811
(dp1812
g11
g1668
sg13
S'Symbol'
p1813
sg15
I500
sg16
g1668
sg17
g1668
sg18
g1623
sg20
g1670
sbag1
(g8
g3
NtRp1814
(dp1815
g11
g1673
sg13
S'Courier'
p1816
sg15
I500
sg16
g1668
sg17
g1668
sg18
g1624
sg20
g1670
sbag1
(g8
g3
NtRp1817
(dp1818
g11
g1668
sg13
S'ZapfDingbats'
p1819
sg15
I500
sg16
g1668
sg17
g1668
sg18
g1625
sg20
g1670
sbag1
(g8
g3
NtRp1820
(dp1821
g11
g1673
sg13
S'Computer Modern'
p1822
sg15
I500
sg16
g1668
sg17
g1668
sg18
g1626
sg20
g1670
sbag1
(g8
g3
NtRp1823
(dp1824
g11
g1668
sg13
S'Courier'
p1825
sg15
I500
sg16
g1668
sg17
g1668
sg18
g1627
sg20
g1670
sbag1
(g8
g3
NtRp1826
(dp1827
g11
g1668
sg13
S'New Century Schoolbook'
p1828
sg15
I700
sg16
g1668
sg17
g1668
sg18
g1628
sg20
g1670
sbag1
(g8
g3
NtRp1829
(dp1830
g11
g1668
sg13
S'ITC Bookman'
p1831
sg15
I600
sg16
g1668
sg17
g1668
sg18
g1629
sg20
g1670
sbag1
(g8
g3
NtRp1832
(dp1833
g11
g1673
sg13
S'ITC Zapf Chancery'
p1834
sg15
I500
sg16
g1668
sg17
g1668
sg18
g1630
sg20
g1670
sbag1
(g8
g3
NtRp1835
(dp1836
g11
g1673
sg13
S'ITC Avant Garde Gothic'
p1837
sg15
I400
sg16
g1668
sg17
g1668
sg18
g1631
sg20
g1670
sbag1
(g8
g3
NtRp1838
(dp1839
g11
g1668
sg13
S'Times'
p1840
sg15
I500
sg16
g1668
sg17
g1668
sg18
g1632
sg20
g1670
sbag1
(g8
g3
NtRp1841
(dp1842
g11
g1668
sg13
S'ITC Avant Garde Gothic'
p1843
sg15
I400
sg16
g1668
sg17
g1668
sg18
g1633
sg20
g1670
sbag1
(g8
g3
NtRp1844
(dp1845
g11
g1673
sg13
S'ITC Avant Garde Gothic'
p1846
sg15
I600
sg16
g1668
sg17
g1668
sg18
g1634
sg20
g1670
sbag1
(g8
g3
NtRp1847
(dp1848
g11
g1673
sg13
S'ITC Bookman'
p1849
sg15
I600
sg16
g1668
sg17
g1668
sg18
g1635
sg20
g1670
sbag1
(g8
g3
NtRp1850
(dp1851
g11
g1668
sg13
S'Utopia'
p1852
sg15
I700
sg16
g1668
sg17
g1668
sg18
g1636
sg20
g1670
sbag1
(g8
g3
NtRp1853
(dp1854
g11
g1668
sg13
S'Courier 10 Pitch'
p1855
sg15
I700
sg16
g1668
sg17
g1668
sg18
g1637
sg20
g1670
sbag1
(g8
g3
NtRp1856
(dp1857
g11
g1673
sg13
S'Luxi Serif'
p1858
sg15
I700
sg16
g1668
sg17
g1668
sg18
g1638
sg20
g1670
sbag1
(g8
g3
NtRp1859
(dp1860
g11
g1673
sg13
S'Bitstream Charter'
p1861
sg15
I400
sg16
g1668
sg17
g1668
sg18
g1639
sg20
g1670
sbag1
(g8
g3
NtRp1862
(dp1863
g11
g1668
sg13
S'Utopia'
p1864
sg15
I400
sg16
g1668
sg17
g1668
sg18
g1640
sg20
g1670
sbag1
(g8
g3
NtRp1865
(dp1866
g11
g1673
sg13
S'Courier 10 Pitch'
p1867
sg15
I400
sg16
g1668
sg17
g1668
sg18
g1641
sg20
g1670
sbag1
(g8
g3
NtRp1868
(dp1869
g11
g1668
sg13
S'Bitstream Charter'
p1870
sg15
I400
sg16
g1668
sg17
g1668
sg18
g1642
sg20
g1670
sbag1
(g8
g3
NtRp1871
(dp1872
g11
g1673
sg13
S'Bitstream Charter'
p1873
sg15
I700
sg16
g1668
sg17
g1668
sg18
g1643
sg20
g1670
sbag1
(g8
g3
NtRp1874
(dp1875
g11
g1668
sg13
S'Luxi Sans'
p1876
sg15
I400
sg16
g1668
sg17
g1668
sg18
g1644
sg20
g1670
sbag1
(g8
g3
NtRp1877
(dp1878
g11
g1668
sg13
S'Courier'
p1879
sg15
I700
sg16
g1668
sg17
g1668
sg18
g1645
sg20
g1670
sbag1
(g8
g3
NtRp1880
(dp1881
g11
g1668
sg13
S'Courier 10 Pitch'
p1882
sg15
I400
sg16
g1668
sg17
g1668
sg18
g1646
sg20
g1670
sbag1
(g8
g3
NtRp1883
(dp1884
g11
g1673
sg13
S'Utopia'
p1885
sg15
I400
sg16
g1668
sg17
g1668
sg18
g1647
sg20
g1670
sbag1
(g8
g3
NtRp1886
(dp1887
g11
g1668
sg13
S'Luxi Serif'
p1888
sg15
I700
sg16
g1668
sg17
g1668
sg18
g1648
sg20
g1670
sbag1
(g8
g3
NtRp1889
(dp1890
g11
g1673
sg13
S'Luxi Sans'
p1891
sg15
I400
sg16
g1668
sg17
g1668
sg18
g1649
sg20
g1670
sbag1
(g8
g3
NtRp1892
(dp1893
g11
g1668
sg13
S'Luxi Sans'
p1894
sg15
I700
sg16
g1668
sg17
g1668
sg18
g1650
sg20
g1670
sbag1
(g8
g3
NtRp1895
(dp1896
g11
g1673
sg13
S'Luxi Sans'
p1897
sg15
I700
sg16
g1668
sg17
g1668
sg18
g1651
sg20
g1670
sbag1
(g8
g3
NtRp1898
(dp1899
g11
g1673
sg13
S'Courier'
p1900
sg15
I700
sg16
g1668
sg17
g1668
sg18
g1652
sg20
g1670
sbag1
(g8
g3
NtRp1901
(dp1902
g11
g1668
sg13
S'Bitstream Charter'
p1903
sg15
I700
sg16
g1668
sg17
g1668
sg18
g1653
sg20
g1670
sbag1
(g8
g3
NtRp1904
(dp1905
g11
g1668
sg13
S'Luxi Serif'
p1906
sg15
I400
sg16
g1668
sg17
g1668
sg18
g1654
sg20
g1670
sbag1
(g8
g3
NtRp1907
(dp1908
g11
g1673
sg13
S'Courier 10 Pitch'
p1909
sg15
I700
sg16
g1668
sg17
g1668
sg18
g1655
sg20
g1670
sbag1
(g8
g3
NtRp1910
(dp1911
g11
g1673
sg13
S'Luxi Mono'
p1912
sg15
I700
sg16
g1668
sg17
g1668
sg18
g1656
sg20
g1670
sbag1
(g8
g3
NtRp1913
(dp1914
g11
g1668
sg13
S'Luxi Mono'
p1915
sg15
I700
sg16
g1668
sg17
g1668
sg18
g1657
sg20
g1670
sbag1
(g8
g3
NtRp1916
(dp1917
g11
g1673
sg13
S'Luxi Mono'
p1918
sg15
I400
sg16
g1668
sg17
g1668
sg18
g1658
sg20
g1670
sbag1
(g8
g3
NtRp1919
(dp1920
g11
g1668
sg13
S'Luxi Mono'
p1921
sg15
I400
sg16
g1668
sg17
g1668
sg18
g1659
sg20
g1670
sbag1
(g8
g3
NtRp1922
(dp1923
g11
g1673
sg13
S'Luxi Serif'
p1924
sg15
I400
sg16
g1668
sg17
g1668
sg18
g1660
sg20
g1670
sbag1
(g8
g3
NtRp1925
(dp1926
g11
g1673
sg13
S'Utopia'
p1927
sg15
I700
sg16
g1668
sg17
g1668
sg18
g1661
sg20
g1670
sbag1
(g8
g3
NtRp1928
(dp1929
g11
g1668
sg13
S'Courier'
p1930
sg15
I400
sg16
g1668
sg17
g1668
sg18
g1662
sg20
g1670
sbag1
(g8
g3
NtRp1931
(dp1932
g11
g1673
sg13
S'Courier'
p1933
sg15
I400
sg16
g1668
sg17
g1668
sg18
g1663
sg20
g1670
sbasb.